

Microchip MPLAB XC8 Assembler V2.10 build 88905656 
                                                                                               Wed Aug 18 09:48:09 2021

Microchip MPLAB XC8 C Compiler v2.10 (Free license) build 20190730164152 Og1 
     1                           	processor	16F877A
     2                           	opt	pw 120
     3                           	opt	flic
     4                           	psect	idataCOMMON,global,class=CODE,delta=2
     5                           	psect	strings,global,class=STRING,delta=2
     6                           	psect	stringtext,global,reloc=256,class=STRCODE,delta=2
     7                           	psect	cinit,global,class=CODE,merge=1,delta=2
     8                           	psect	bssCOMMON,global,class=COMMON,space=1,delta=1
     9                           	psect	dataCOMMON,global,class=COMMON,space=1,delta=1
    10                           	psect	bssBANK0,global,class=BANK0,space=1,delta=1
    11                           	psect	clrtext,global,class=CODE,delta=2
    12                           	psect	cstackCOMMON,global,class=COMMON,space=1,delta=1
    13                           	psect	cstackBANK0,global,class=BANK0,space=1,delta=1
    14                           	psect	maintext,global,class=CODE,split=1,delta=2
    15                           	psect	text1,local,class=CODE,merge=1,delta=2
    16                           	psect	text2,local,class=CODE,merge=1,delta=2
    17                           	psect	text3,local,class=CODE,merge=1,delta=2
    18                           	psect	text4,local,class=CODE,merge=1,delta=2
    19                           	psect	text5,local,class=CODE,merge=1,delta=2
    20                           	psect	text6,local,class=CODE,merge=1,delta=2
    21                           	psect	text7,local,class=CODE,merge=1,delta=2
    22                           	psect	text8,local,class=CODE,merge=1,delta=2
    23                           	psect	text9,local,class=CODE,merge=1,delta=2
    24                           	psect	text10,local,class=CODE,merge=1,delta=2
    25                           	psect	text11,local,class=CODE,merge=1,delta=2,group=1
    26                           	psect	text12,local,class=CODE,merge=1,delta=2,group=1
    27                           	psect	text13,local,class=CODE,merge=1,delta=2,group=1
    28                           	psect	text14,local,class=CODE,merge=1,delta=2
    29                           	psect	text15,local,class=CODE,merge=1,delta=2
    30                           	psect	text16,local,class=CODE,merge=1,delta=2
    31                           	psect	text17,local,class=CODE,merge=1,delta=2
    32                           	psect	text18,local,class=CODE,merge=1,delta=2
    33                           	psect	text19,local,class=CODE,merge=1,delta=2
    34                           	psect	text20,local,class=CODE,merge=1,delta=2
    35                           	psect	text21,local,class=CODE,merge=1,delta=2
    36                           	psect	text22,local,class=CODE,merge=1,delta=2
    37                           	psect	intentry,global,class=CODE,delta=2
    38                           	dabs	1,0x7E,2
    39  0000                     
    40                           ; Version 2.10
    41                           ; Generated 31/07/2019 GMT
    42                           ; 
    43                           ; Copyright © 2019, Microchip Technology Inc. and its subsidiaries ("Microchip")
    44                           ; All rights reserved.
    45                           ; 
    46                           ; This software is developed by Microchip Technology Inc. and its subsidiaries ("Microch
      +                          ip").
    47                           ; 
    48                           ; Redistribution and use in source and binary forms, with or without modification, are
    49                           ; permitted provided that the following conditions are met:
    50                           ; 
    51                           ;     1. Redistributions of source code must retain the above copyright notice, this lis
      +                          t of
    52                           ;        conditions and the following disclaimer.
    53                           ; 
    54                           ;     2. Redistributions in binary form must reproduce the above copyright notice, this 
      +                          list
    55                           ;        of conditions and the following disclaimer in the documentation and/or other
    56                           ;        materials provided with the distribution.
    57                           ; 
    58                           ;     3. Microchip's name may not be used to endorse or promote products derived from th
      +                          is
    59                           ;        software without specific prior written permission.
    60                           ; 
    61                           ; THIS SOFTWARE IS PROVIDED BY MICROCHIP "AS IS" AND ANY EXPRESS OR IMPLIED WARRANTIES,
    62                           ; INCLUDING, BUT NOT LIMITED TO, THE IMPLIED WARRANTIES OF MERCHANTABILITY AND FITNESS F
      +                          OR
    63                           ; PURPOSE ARE DISCLAIMED.  IN NO EVENT SHALL MICROCHIP BE LIABLE FOR ANY DIRECT, INDIREC
      +                          T,
    64                           ; INCIDENTAL, SPECIAL, EXEMPLARY, OR CONSEQUENTIAL DAMAGES (INCLUDING BUT NOT LIMITED TO
    65                           ; PROCUREMENT OF SUBSTITUTE GOODS OR SERVICES; LOSS OF USE, DATA OR PROFITS; OR BUSINESS
    66                           ; INTERRUPTION) HOWSOEVER CAUSED AND ON ANY THEORY OF LIABILITY, WHETHER IN CONTRACT, ST
      +                          RICT
    67                           ; LIABILITY, OR TORT (INCLUDING NEGLIGENCE OR OTHERWISE) ARISING IN ANY WAY OUT OF THE U
      +                          SE OF
    68                           ; THIS SOFTWARE, EVEN IF ADVISED OF THE POSSIBILITY OF SUCH DAMAGE.
    69                           ; 
    70                           ; 
    71                           ; Code-generator required, PIC16F877A Definitions
    72                           ; 
    73                           ; SFR Addresses
    74  0000                     	;# 
    75  0001                     	;# 
    76  0002                     	;# 
    77  0003                     	;# 
    78  0004                     	;# 
    79  0005                     	;# 
    80  0006                     	;# 
    81  0007                     	;# 
    82  0008                     	;# 
    83  0009                     	;# 
    84  000A                     	;# 
    85  000B                     	;# 
    86  000C                     	;# 
    87  000D                     	;# 
    88  000E                     	;# 
    89  000E                     	;# 
    90  000F                     	;# 
    91  0010                     	;# 
    92  0011                     	;# 
    93  0012                     	;# 
    94  0013                     	;# 
    95  0014                     	;# 
    96  0015                     	;# 
    97  0015                     	;# 
    98  0016                     	;# 
    99  0017                     	;# 
   100  0018                     	;# 
   101  0019                     	;# 
   102  001A                     	;# 
   103  001B                     	;# 
   104  001B                     	;# 
   105  001C                     	;# 
   106  001D                     	;# 
   107  001E                     	;# 
   108  001F                     	;# 
   109  0081                     	;# 
   110  0085                     	;# 
   111  0086                     	;# 
   112  0087                     	;# 
   113  0088                     	;# 
   114  0089                     	;# 
   115  008C                     	;# 
   116  008D                     	;# 
   117  008E                     	;# 
   118  0091                     	;# 
   119  0092                     	;# 
   120  0093                     	;# 
   121  0094                     	;# 
   122  0098                     	;# 
   123  0099                     	;# 
   124  009C                     	;# 
   125  009D                     	;# 
   126  009E                     	;# 
   127  009F                     	;# 
   128  010C                     	;# 
   129  010D                     	;# 
   130  010E                     	;# 
   131  010F                     	;# 
   132  018C                     	;# 
   133  018D                     	;# 
   134  0000                     	;# 
   135  0001                     	;# 
   136  0002                     	;# 
   137  0003                     	;# 
   138  0004                     	;# 
   139  0005                     	;# 
   140  0006                     	;# 
   141  0007                     	;# 
   142  0008                     	;# 
   143  0009                     	;# 
   144  000A                     	;# 
   145  000B                     	;# 
   146  000C                     	;# 
   147  000D                     	;# 
   148  000E                     	;# 
   149  000E                     	;# 
   150  000F                     	;# 
   151  0010                     	;# 
   152  0011                     	;# 
   153  0012                     	;# 
   154  0013                     	;# 
   155  0014                     	;# 
   156  0015                     	;# 
   157  0015                     	;# 
   158  0016                     	;# 
   159  0017                     	;# 
   160  0018                     	;# 
   161  0019                     	;# 
   162  001A                     	;# 
   163  001B                     	;# 
   164  001B                     	;# 
   165  001C                     	;# 
   166  001D                     	;# 
   167  001E                     	;# 
   168  001F                     	;# 
   169  0081                     	;# 
   170  0085                     	;# 
   171  0086                     	;# 
   172  0087                     	;# 
   173  0088                     	;# 
   174  0089                     	;# 
   175  008C                     	;# 
   176  008D                     	;# 
   177  008E                     	;# 
   178  0091                     	;# 
   179  0092                     	;# 
   180  0093                     	;# 
   181  0094                     	;# 
   182  0098                     	;# 
   183  0099                     	;# 
   184  009C                     	;# 
   185  009D                     	;# 
   186  009E                     	;# 
   187  009F                     	;# 
   188  010C                     	;# 
   189  010D                     	;# 
   190  010E                     	;# 
   191  010F                     	;# 
   192  018C                     	;# 
   193  018D                     	;# 
   194  0000                     	;# 
   195  0001                     	;# 
   196  0002                     	;# 
   197  0003                     	;# 
   198  0004                     	;# 
   199  0005                     	;# 
   200  0006                     	;# 
   201  0007                     	;# 
   202  0008                     	;# 
   203  0009                     	;# 
   204  000A                     	;# 
   205  000B                     	;# 
   206  000C                     	;# 
   207  000D                     	;# 
   208  000E                     	;# 
   209  000E                     	;# 
   210  000F                     	;# 
   211  0010                     	;# 
   212  0011                     	;# 
   213  0012                     	;# 
   214  0013                     	;# 
   215  0014                     	;# 
   216  0015                     	;# 
   217  0015                     	;# 
   218  0016                     	;# 
   219  0017                     	;# 
   220  0018                     	;# 
   221  0019                     	;# 
   222  001A                     	;# 
   223  001B                     	;# 
   224  001B                     	;# 
   225  001C                     	;# 
   226  001D                     	;# 
   227  001E                     	;# 
   228  001F                     	;# 
   229  0081                     	;# 
   230  0085                     	;# 
   231  0086                     	;# 
   232  0087                     	;# 
   233  0088                     	;# 
   234  0089                     	;# 
   235  008C                     	;# 
   236  008D                     	;# 
   237  008E                     	;# 
   238  0091                     	;# 
   239  0092                     	;# 
   240  0093                     	;# 
   241  0094                     	;# 
   242  0098                     	;# 
   243  0099                     	;# 
   244  009C                     	;# 
   245  009D                     	;# 
   246  009E                     	;# 
   247  009F                     	;# 
   248  010C                     	;# 
   249  010D                     	;# 
   250  010E                     	;# 
   251  010F                     	;# 
   252  018C                     	;# 
   253  018D                     	;# 
   254  0000                     	;# 
   255  0001                     	;# 
   256  0002                     	;# 
   257  0003                     	;# 
   258  0004                     	;# 
   259  0005                     	;# 
   260  0006                     	;# 
   261  0007                     	;# 
   262  0008                     	;# 
   263  0009                     	;# 
   264  000A                     	;# 
   265  000B                     	;# 
   266  000C                     	;# 
   267  000D                     	;# 
   268  000E                     	;# 
   269  000E                     	;# 
   270  000F                     	;# 
   271  0010                     	;# 
   272  0011                     	;# 
   273  0012                     	;# 
   274  0013                     	;# 
   275  0014                     	;# 
   276  0015                     	;# 
   277  0015                     	;# 
   278  0016                     	;# 
   279  0017                     	;# 
   280  0018                     	;# 
   281  0019                     	;# 
   282  001A                     	;# 
   283  001B                     	;# 
   284  001B                     	;# 
   285  001C                     	;# 
   286  001D                     	;# 
   287  001E                     	;# 
   288  001F                     	;# 
   289  0081                     	;# 
   290  0085                     	;# 
   291  0086                     	;# 
   292  0087                     	;# 
   293  0088                     	;# 
   294  0089                     	;# 
   295  008C                     	;# 
   296  008D                     	;# 
   297  008E                     	;# 
   298  0091                     	;# 
   299  0092                     	;# 
   300  0093                     	;# 
   301  0094                     	;# 
   302  0098                     	;# 
   303  0099                     	;# 
   304  009C                     	;# 
   305  009D                     	;# 
   306  009E                     	;# 
   307  009F                     	;# 
   308  010C                     	;# 
   309  010D                     	;# 
   310  010E                     	;# 
   311  010F                     	;# 
   312  018C                     	;# 
   313  018D                     	;# 
   314  0000                     	;# 
   315  0001                     	;# 
   316  0002                     	;# 
   317  0003                     	;# 
   318  0004                     	;# 
   319  0005                     	;# 
   320  0006                     	;# 
   321  0007                     	;# 
   322  0008                     	;# 
   323  0009                     	;# 
   324  000A                     	;# 
   325  000B                     	;# 
   326  000C                     	;# 
   327  000D                     	;# 
   328  000E                     	;# 
   329  000E                     	;# 
   330  000F                     	;# 
   331  0010                     	;# 
   332  0011                     	;# 
   333  0012                     	;# 
   334  0013                     	;# 
   335  0014                     	;# 
   336  0015                     	;# 
   337  0015                     	;# 
   338  0016                     	;# 
   339  0017                     	;# 
   340  0018                     	;# 
   341  0019                     	;# 
   342  001A                     	;# 
   343  001B                     	;# 
   344  001B                     	;# 
   345  001C                     	;# 
   346  001D                     	;# 
   347  001E                     	;# 
   348  001F                     	;# 
   349  0081                     	;# 
   350  0085                     	;# 
   351  0086                     	;# 
   352  0087                     	;# 
   353  0088                     	;# 
   354  0089                     	;# 
   355  008C                     	;# 
   356  008D                     	;# 
   357  008E                     	;# 
   358  0091                     	;# 
   359  0092                     	;# 
   360  0093                     	;# 
   361  0094                     	;# 
   362  0098                     	;# 
   363  0099                     	;# 
   364  009C                     	;# 
   365  009D                     	;# 
   366  009E                     	;# 
   367  009F                     	;# 
   368  010C                     	;# 
   369  010D                     	;# 
   370  010E                     	;# 
   371  010F                     	;# 
   372  018C                     	;# 
   373  018D                     	;# 
   374  0000                     	;# 
   375  0001                     	;# 
   376  0002                     	;# 
   377  0003                     	;# 
   378  0004                     	;# 
   379  0005                     	;# 
   380  0006                     	;# 
   381  0007                     	;# 
   382  0008                     	;# 
   383  0009                     	;# 
   384  000A                     	;# 
   385  000B                     	;# 
   386  000C                     	;# 
   387  000D                     	;# 
   388  000E                     	;# 
   389  000E                     	;# 
   390  000F                     	;# 
   391  0010                     	;# 
   392  0011                     	;# 
   393  0012                     	;# 
   394  0013                     	;# 
   395  0014                     	;# 
   396  0015                     	;# 
   397  0015                     	;# 
   398  0016                     	;# 
   399  0017                     	;# 
   400  0018                     	;# 
   401  0019                     	;# 
   402  001A                     	;# 
   403  001B                     	;# 
   404  001B                     	;# 
   405  001C                     	;# 
   406  001D                     	;# 
   407  001E                     	;# 
   408  001F                     	;# 
   409  0081                     	;# 
   410  0085                     	;# 
   411  0086                     	;# 
   412  0087                     	;# 
   413  0088                     	;# 
   414  0089                     	;# 
   415  008C                     	;# 
   416  008D                     	;# 
   417  008E                     	;# 
   418  0091                     	;# 
   419  0092                     	;# 
   420  0093                     	;# 
   421  0094                     	;# 
   422  0098                     	;# 
   423  0099                     	;# 
   424  009C                     	;# 
   425  009D                     	;# 
   426  009E                     	;# 
   427  009F                     	;# 
   428  010C                     	;# 
   429  010D                     	;# 
   430  010E                     	;# 
   431  010F                     	;# 
   432  018C                     	;# 
   433  018D                     	;# 
   434                           
   435                           	psect	idataCOMMON
   436  07FC                     __pidataCOMMON:	
   437                           
   438                           ;initializer for read_matrix_keypad@once
   439  07FC  3401               	retlw	1
   440  0008                     _PORTD	set	8
   441  0061                     _TMR2IF	set	97
   442  0091                     _T2CKPS1	set	145
   443  0090                     _T2CKPS0	set	144
   444  0049                     _RE1	set	73
   445  004A                     _RE2	set	74
   446  0032                     _RB2	set	50
   447  0031                     _RB1	set	49
   448  0030                     _RB0	set	48
   449  0040                     _RD0	set	64
   450  0041                     _RD1	set	65
   451  0042                     _RD2	set	66
   452  0043                     _RD3	set	67
   453  0033                     _RB3	set	51
   454  0092                     _TMR2ON	set	146
   455  005F                     _GIE	set	95
   456  005E                     _PEIE	set	94
   457  003A                     _RC2	set	58
   458  0039                     _RC1	set	57
   459  0092                     _PR2	set	146
   460  0088                     _TRISD	set	136
   461  0086                     _TRISB	set	134
   462  0461                     _TMR2IE	set	1121
   463  0449                     _TRISE1	set	1097
   464  044A                     _TRISE2	set	1098
   465  040F                     _nRBPU	set	1039
   466  043A                     _TRISC2	set	1082
   467  0439                     _TRISC1	set	1081
   468                           
   469                           	psect	strings
   470  04E7                     __pstrings:	
   471  04E7                     stringtab:	
   472  04E7                     __stringtab:	
   473                           
   474                           ;	String table - string pointers are 2 bytes each
   475  04E7  1BFF               	btfsc	btemp+1,7
   476  04E8  2CF1               	ljmp	stringcode
   477  04E9  1383               	bcf	3,7
   478  04EA  187F               	btfsc	btemp+1,0
   479  04EB  1783               	bsf	3,7
   480  04EC  0800               	movf	0,w
   481  04ED  0A84               	incf	4,f
   482  04EE  1903               	skipnz
   483  04EF  0AFF               	incf	btemp+1,f
   484  04F0  0008               	return
   485  04F1                     stringcode:	
   486  04F1  087F               	movf	btemp+1,w
   487  04F2  397F               	andlw	127
   488  04F3  008A               	movwf	10
   489  04F4  0804               	movf	4,w
   490  04F5  0A84               	incf	4,f
   491  04F6  1903               	skipnz
   492  04F7  0AFF               	incf	btemp+1,f
   493  04F8  0082               	movwf	2
   494  04F9                     __stringbase:	
   495  04F9                     __end_of__stringtab:	
   496                           
   497                           	psect	stringtext
   498  0500                     __pstringtext:	
   499  0500                     STR_18:	
   500  0500  3420               	retlw	32	;' '
   501  0501  3436               	retlw	54	;'6'
   502  0502  342E               	retlw	46	;'.'
   503  0503  3453               	retlw	83	;'S'
   504  0504  3454               	retlw	84	;'T'
   505  0505  344F               	retlw	79	;'O'
   506  0506  3450               	retlw	80	;'P'
   507  0507  3420               	retlw	32	;' '
   508  0508  3420               	retlw	32	;' '
   509  0509  3420               	retlw	32	;' '
   510  050A  3420               	retlw	32	;' '
   511  050B  3420               	retlw	32	;' '
   512  050C  3420               	retlw	32	;' '
   513  050D  3420               	retlw	32	;' '
   514  050E  3420               	retlw	32	;' '
   515  050F  3420               	retlw	32	;' '
   516  0510  3400               	retlw	0
   517  0511                     STR_17:	
   518  0511  3420               	retlw	32	;' '
   519  0512  3435               	retlw	53	;'5'
   520  0513  342E               	retlw	46	;'.'
   521  0514  3450               	retlw	80	;'P'
   522  0515  3441               	retlw	65	;'A'
   523  0516  3455               	retlw	85	;'U'
   524  0517  3453               	retlw	83	;'S'
   525  0518  3445               	retlw	69	;'E'
   526  0519  3420               	retlw	32	;' '
   527  051A  3420               	retlw	32	;' '
   528  051B  3420               	retlw	32	;' '
   529  051C  3420               	retlw	32	;' '
   530  051D  3420               	retlw	32	;' '
   531  051E  3420               	retlw	32	;' '
   532  051F  3420               	retlw	32	;' '
   533  0520  3420               	retlw	32	;' '
   534  0521  3400               	retlw	0
   535  0522                     STR_16:	
   536  0522  3420               	retlw	32	;' '
   537  0523  3434               	retlw	52	;'4'
   538  0524  342E               	retlw	46	;'.'
   539  0525  3453               	retlw	83	;'S'
   540  0526  3454               	retlw	84	;'T'
   541  0527  3441               	retlw	65	;'A'
   542  0528  3452               	retlw	82	;'R'
   543  0529  3454               	retlw	84	;'T'
   544  052A  342F               	retlw	47	;'/'
   545  052B  3452               	retlw	82	;'R'
   546  052C  3445               	retlw	69	;'E'
   547  052D  3453               	retlw	83	;'S'
   548  052E  3455               	retlw	85	;'U'
   549  052F  344D               	retlw	77	;'M'
   550  0530  3445               	retlw	69	;'E'
   551  0531  3420               	retlw	32	;' '
   552  0532  3400               	retlw	0
   553  0533                     STR_3:	
   554  0533  3420               	retlw	32	;' '
   555  0534  344D               	retlw	77	;'M'
   556  0535  3469               	retlw	105	;'i'
   557  0536  3463               	retlw	99	;'c'
   558  0537  3472               	retlw	114	;'r'
   559  0538  346F               	retlw	111	;'o'
   560  0539  3477               	retlw	119	;'w'
   561  053A  3461               	retlw	97	;'a'
   562  053B  3476               	retlw	118	;'v'
   563  053C  3465               	retlw	101	;'e'
   564  053D  3420               	retlw	32	;' '
   565  053E  344F               	retlw	79	;'O'
   566  053F  3476               	retlw	118	;'v'
   567  0540  3465               	retlw	101	;'e'
   568  0541  346E               	retlw	110	;'n'
   569  0542  3420               	retlw	32	;' '
   570  0543  3400               	retlw	0
   571  0544                     STR_8:	
   572  0544  3453               	retlw	83	;'S'
   573  0545  3445               	retlw	69	;'E'
   574  0546  3454               	retlw	84	;'T'
   575  0547  3420               	retlw	32	;' '
   576  0548  3454               	retlw	84	;'T'
   577  0549  3449               	retlw	73	;'I'
   578  054A  344D               	retlw	77	;'M'
   579  054B  3445               	retlw	69	;'E'
   580  054C  3420               	retlw	32	;' '
   581  054D  3428               	retlw	40	;'('
   582  054E  344D               	retlw	77	;'M'
   583  054F  344D               	retlw	77	;'M'
   584  0550  343A               	retlw	58	;':'
   585  0551  3453               	retlw	83	;'S'
   586  0552  3453               	retlw	83	;'S'
   587  0553  3429               	retlw	41	;')'
   588  0554  3400               	retlw	0
   589  0555                     STR_13:	
   590  0555  3444               	retlw	68	;'D'
   591  0556  346F               	retlw	111	;'o'
   592  0557  346F               	retlw	111	;'o'
   593  0558  3472               	retlw	114	;'r'
   594  0559  3420               	retlw	32	;' '
   595  055A  3453               	retlw	83	;'S'
   596  055B  3474               	retlw	116	;'t'
   597  055C  3461               	retlw	97	;'a'
   598  055D  3474               	retlw	116	;'t'
   599  055E  3475               	retlw	117	;'u'
   600  055F  3473               	retlw	115	;'s'
   601  0560  343A               	retlw	58	;':'
   602  0561  344F               	retlw	79	;'O'
   603  0562  3450               	retlw	80	;'P'
   604  0563  3445               	retlw	69	;'E'
   605  0564  344E               	retlw	78	;'N'
   606  0565  3400               	retlw	0
   607  0566                     STR_10:	
   608  0566  342A               	retlw	42	;'*'
   609  0567  343A               	retlw	58	;':'
   610  0568  3443               	retlw	67	;'C'
   611  0569  344C               	retlw	76	;'L'
   612  056A  3445               	retlw	69	;'E'
   613  056B  3441               	retlw	65	;'A'
   614  056C  3452               	retlw	82	;'R'
   615  056D  3420               	retlw	32	;' '
   616  056E  3420               	retlw	32	;' '
   617  056F  3423               	retlw	35	;'#'
   618  0570  343A               	retlw	58	;':'
   619  0571  3445               	retlw	69	;'E'
   620  0572  344E               	retlw	78	;'N'
   621  0573  3454               	retlw	84	;'T'
   622  0574  3445               	retlw	69	;'E'
   623  0575  3452               	retlw	82	;'R'
   624  0576  3400               	retlw	0
   625  0577                     STR_19:	
   626  0577  3443               	retlw	67	;'C'
   627  0578  346F               	retlw	111	;'o'
   628  0579  346F               	retlw	111	;'o'
   629  057A  346B               	retlw	107	;'k'
   630  057B  3469               	retlw	105	;'i'
   631  057C  346E               	retlw	110	;'n'
   632  057D  3467               	retlw	103	;'g'
   633  057E  3420               	retlw	32	;' '
   634  057F  3454               	retlw	84	;'T'
   635  0580  3469               	retlw	105	;'i'
   636  0581  346D               	retlw	109	;'m'
   637  0582  3465               	retlw	101	;'e'
   638  0583  3420               	retlw	32	;' '
   639  0584  3455               	retlw	85	;'U'
   640  0585  3450               	retlw	80	;'P'
   641  0586  3400               	retlw	0
   642  0587                     STR_2:	
   643  0587  3420               	retlw	32	;' '
   644  0588  3420               	retlw	32	;' '
   645  0589  3450               	retlw	80	;'P'
   646  058A  346F               	retlw	111	;'o'
   647  058B  3477               	retlw	119	;'w'
   648  058C  3465               	retlw	101	;'e'
   649  058D  3472               	retlw	114	;'r'
   650  058E  3469               	retlw	105	;'i'
   651  058F  346E               	retlw	110	;'n'
   652  0590  3467               	retlw	103	;'g'
   653  0591  3420               	retlw	32	;' '
   654  0592  344F               	retlw	79	;'O'
   655  0593  344E               	retlw	78	;'N'
   656  0594  3420               	retlw	32	;' '
   657  0595  3400               	retlw	0
   658  0596                     STR_24:	
   659  0596  3420               	retlw	32	;' '
   660  0597  3449               	retlw	73	;'I'
   661  0598  346E               	retlw	110	;'n'
   662  0599  3476               	retlw	118	;'v'
   663  059A  3461               	retlw	97	;'a'
   664  059B  346C               	retlw	108	;'l'
   665  059C  3469               	retlw	105	;'i'
   666  059D  3464               	retlw	100	;'d'
   667  059E  3420               	retlw	32	;' '
   668  059F  3454               	retlw	84	;'T'
   669  05A0  3465               	retlw	101	;'e'
   670  05A1  346D               	retlw	109	;'m'
   671  05A2  3470               	retlw	112	;'p'
   672  05A3  342E               	retlw	46	;'.'
   673  05A4  3400               	retlw	0
   674  05A5                     STR_14:	
   675  05A5  3420               	retlw	32	;' '
   676  05A6  3420               	retlw	32	;' '
   677  05A7  3450               	retlw	80	;'P'
   678  05A8  346C               	retlw	108	;'l'
   679  05A9  3465               	retlw	101	;'e'
   680  05AA  3461               	retlw	97	;'a'
   681  05AB  3473               	retlw	115	;'s'
   682  05AC  3465               	retlw	101	;'e'
   683  05AD  3420               	retlw	32	;' '
   684  05AE  3443               	retlw	67	;'C'
   685  05AF  346C               	retlw	108	;'l'
   686  05B0  346F               	retlw	111	;'o'
   687  05B1  3473               	retlw	115	;'s'
   688  05B2  3465               	retlw	101	;'e'
   689  05B3  3400               	retlw	0
   690  05B4                     STR_20:	
   691  05B4  3453               	retlw	83	;'S'
   692  05B5  3445               	retlw	69	;'E'
   693  05B6  3454               	retlw	84	;'T'
   694  05B7  3420               	retlw	32	;' '
   695  05B8  3454               	retlw	84	;'T'
   696  05B9  3445               	retlw	69	;'E'
   697  05BA  344D               	retlw	77	;'M'
   698  05BB  3450               	retlw	80	;'P'
   699  05BC  342E               	retlw	46	;'.'
   700  05BD  3420               	retlw	32	;' '
   701  05BE  3428               	retlw	40	;'('
   702  05BF  3420               	retlw	32	;' '
   703  05C0  3420               	retlw	32	;' '
   704  05C1  3400               	retlw	0
   705  05C2                     STR_1:	
   706  05C2  3420               	retlw	32	;' '
   707  05C3  3450               	retlw	80	;'P'
   708  05C4  346F               	retlw	111	;'o'
   709  05C5  3477               	retlw	119	;'w'
   710  05C6  3465               	retlw	101	;'e'
   711  05C7  3472               	retlw	114	;'r'
   712  05C8  3420               	retlw	32	;' '
   713  05C9  343D               	retlw	61	;'='
   714  05CA  3420               	retlw	32	;' '
   715  05CB  3439               	retlw	57	;'9'
   716  05CC  3430               	retlw	48	;'0'
   717  05CD  3430               	retlw	48	;'0'
   718  05CE  3457               	retlw	87	;'W'
   719  05CF  3400               	retlw	0
   720  05D0                     STR_25:	
   721  05D0  3420               	retlw	32	;' '
   722  05D1  3420               	retlw	32	;' '
   723  05D2  3450               	retlw	80	;'P'
   724  05D3  3472               	retlw	114	;'r'
   725  05D4  3465               	retlw	101	;'e'
   726  05D5  342D               	retlw	45	;'-'
   727  05D6  3448               	retlw	72	;'H'
   728  05D7  3465               	retlw	101	;'e'
   729  05D8  3461               	retlw	97	;'a'
   730  05D9  3474               	retlw	116	;'t'
   731  05DA  3469               	retlw	105	;'i'
   732  05DB  346E               	retlw	110	;'n'
   733  05DC  3467               	retlw	103	;'g'
   734  05DD  3400               	retlw	0
   735  05DE                     STR_6:	
   736  05DE  3433               	retlw	51	;'3'
   737  05DF  342E               	retlw	46	;'.'
   738  05E0  3443               	retlw	67	;'C'
   739  05E1  346F               	retlw	111	;'o'
   740  05E2  346E               	retlw	110	;'n'
   741  05E3  3476               	retlw	118	;'v'
   742  05E4  3465               	retlw	101	;'e'
   743  05E5  3463               	retlw	99	;'c'
   744  05E6  3474               	retlw	116	;'t'
   745  05E7  3469               	retlw	105	;'i'
   746  05E8  346F               	retlw	111	;'o'
   747  05E9  346E               	retlw	110	;'n'
   748  05EA  3400               	retlw	0
   749  05EB                     STR_22:	
   750  05EB  3420               	retlw	32	;' '
   751  05EC  3454               	retlw	84	;'T'
   752  05ED  3445               	retlw	69	;'E'
   753  05EE  344D               	retlw	77	;'M'
   754  05EF  3450               	retlw	80	;'P'
   755  05F0  3420               	retlw	32	;' '
   756  05F1  343A               	retlw	58	;':'
   757  05F2  3420               	retlw	32	;' '
   758  05F3  3430               	retlw	48	;'0'
   759  05F4  3430               	retlw	48	;'0'
   760  05F5  3430               	retlw	48	;'0'
   761  05F6  3400               	retlw	0
   762  05F7                     STR_9:	
   763  05F7  3454               	retlw	84	;'T'
   764  05F8  3449               	retlw	73	;'I'
   765  05F9  344D               	retlw	77	;'M'
   766  05FA  3445               	retlw	69	;'E'
   767  05FB  342D               	retlw	45	;'-'
   768  05FC  3420               	retlw	32	;' '
   769  05FD  3430               	retlw	48	;'0'
   770  05FE  3430               	retlw	48	;'0'
   771  05FF  343A               	retlw	58	;':'
   772  0600  3430               	retlw	48	;'0'
   773  0601  3430               	retlw	48	;'0'
   774  0602  3400               	retlw	0
   775  0603                     STR_26:	
   776  0603  3454               	retlw	84	;'T'
   777  0604  3469               	retlw	105	;'i'
   778  0605  346D               	retlw	109	;'m'
   779  0606  3465               	retlw	101	;'e'
   780  0607  3420               	retlw	32	;' '
   781  0608  3452               	retlw	82	;'R'
   782  0609  3465               	retlw	101	;'e'
   783  060A  346D               	retlw	109	;'m'
   784  060B  342E               	retlw	46	;'.'
   785  060C  343D               	retlw	61	;'='
   786  060D  3400               	retlw	0
   787  060E                     STR_15:	
   788  060E  3420               	retlw	32	;' '
   789  060F  3454               	retlw	84	;'T'
   790  0610  3449               	retlw	73	;'I'
   791  0611  344D               	retlw	77	;'M'
   792  0612  3445               	retlw	69	;'E'
   793  0613  3420               	retlw	32	;' '
   794  0614  343D               	retlw	61	;'='
   795  0615  3420               	retlw	32	;' '
   796  0616  3400               	retlw	0
   797  0617                     STR_5:	
   798  0617  3432               	retlw	50	;'2'
   799  0618  342E               	retlw	46	;'.'
   800  0619  3447               	retlw	71	;'G'
   801  061A  3472               	retlw	114	;'r'
   802  061B  3469               	retlw	105	;'i'
   803  061C  346C               	retlw	108	;'l'
   804  061D  346C               	retlw	108	;'l'
   805  061E  3400               	retlw	0
   806  061F                     STR_4:	
   807  061F  3431               	retlw	49	;'1'
   808  0620  342E               	retlw	46	;'.'
   809  0621  344D               	retlw	77	;'M'
   810  0622  3469               	retlw	105	;'i'
   811  0623  3463               	retlw	99	;'c'
   812  0624  3472               	retlw	114	;'r'
   813  0625  346F               	retlw	111	;'o'
   814  0626  3400               	retlw	0
   815  0627                     STR_7:	
   816  0627  3434               	retlw	52	;'4'
   817  0628  342E               	retlw	46	;'.'
   818  0629  3453               	retlw	83	;'S'
   819  062A  3474               	retlw	116	;'t'
   820  062B  3461               	retlw	97	;'a'
   821  062C  3472               	retlw	114	;'r'
   822  062D  3474               	retlw	116	;'t'
   823  062E  3400               	retlw	0
   824  062F                     STR_21:	
   825  062F  3443               	retlw	67	;'C'
   826  0630  3420               	retlw	32	;' '
   827  0631  3429               	retlw	41	;')'
   828  0632  3400               	retlw	0
   829  050E                     
   830                           ; #config settings
   831  0000                     
   832                           	psect	cinit
   833  0013                     start_initialization:	
   834  0013                     __initialization:	
   835                           
   836                           ; Initialize objects allocated to COMMON
   837  0013  120A  118A  27FC  120A  118A  	fcall	__pidataCOMMON	;fetch initializer
   838  0018  00FA               	movwf	__pdataCOMMON& (0+127)
   839                           
   840                           ; Clear objects allocated to BANK0
   841  0019  1383               	bcf	3,7	;select IRP bank0
   842  001A  3020               	movlw	low __pbssBANK0
   843  001B  0084               	movwf	4
   844  001C  3044               	movlw	low (__pbssBANK0+36)
   845  001D  120A  158A  2364  120A  118A  	fcall	clear_ram0
   846                           
   847                           ; Clear objects allocated to COMMON
   848  0022  01F8               	clrf	__pbssCOMMON& (0+127)
   849  0023  01F9               	clrf	(__pbssCOMMON+1)& (0+127)
   850  0024                     end_of_initialization:	
   851                           ;End of C runtime variable initialization code
   852                           
   853  0024                     __end_of__initialization:	
   854  0024  0183               	clrf	3
   855  0025  120A  118A  2E33   	ljmp	_main	;jump to C main() function
   856                           
   857                           	psect	bssCOMMON
   858  0078                     __pbssCOMMON:	
   859  0078                     set_time@key_count:	
   860  0078                     	ds	2
   861                           
   862                           	psect	dataCOMMON
   863  007A                     __pdataCOMMON:	
   864  007A                     read_matrix_keypad@once:	
   865  007A                     	ds	1
   866                           
   867                           	psect	bssBANK0
   868  0020                     __pbssBANK0:	
   869  0020                     isr@count:	
   870  0020                     	ds	2
   871  0022                     set_temp@temp:	
   872  0022                     	ds	2
   873  0024                     set_temp@key_count:	
   874  0024                     	ds	2
   875  0026                     set_temp@wait:	
   876  0026                     	ds	2
   877  0028                     set_temp@blink:	
   878  0028                     	ds	2
   879  002A                     set_time@blink_pos:	
   880  002A                     	ds	2
   881  002C                     set_time@wait:	
   882  002C                     	ds	2
   883  002E                     set_time@blink:	
   884  002E                     	ds	2
   885  0030                     _heat_flag:	
   886  0030                     	ds	2
   887  0032                     _flag:	
   888  0032                     	ds	2
   889  0034                     _ret:	
   890  0034                     	ds	2
   891  0036                     _sec:	
   892  0036                     	ds	2
   893  0038                     _min:	
   894  0038                     	ds	2
   895  003A                     _reset_flag:	
   896  003A                     	ds	2
   897  003C                     _operation_mode:	
   898  003C                     	ds	2
   899  003E                     _min_array:	
   900  003E                     	ds	3
   901  0041                     _sec_array:	
   902  0041                     	ds	3
   903                           
   904                           	psect	clrtext
   905  0B64                     clear_ram0:	
   906                           ;	Called with FSR containing the base address, and
   907                           ;	W with the last address+1
   908                           
   909  0B64  0064               	clrwdt	;clear the watchdog before getting into this loop
   910  0B65                     clrloop0:	
   911  0B65  0180               	clrf	0	;clear RAM location pointed to by FSR
   912  0B66  0A84               	incf	4,f	;increment pointer
   913  0B67  0604               	xorwf	4,w	;XOR with final address
   914  0B68  1903               	btfsc	3,2	;have we reached the end yet?
   915  0B69  3400               	retlw	0	;all done for this memory range, return
   916  0B6A  0604               	xorwf	4,w	;XOR again to restore value
   917  0B6B  2B65               	goto	clrloop0	;do the next byte
   918                           
   919                           	psect	cstackCOMMON
   920  0070                     __pcstackCOMMON:	
   921  0070                     ?_init_clcd:	
   922  0070                     ?_init_matrix_keypad:	
   923                           ; 1 bytes @ 0x0
   924                           
   925  0070                     ?_init_timer2:	
   926                           ; 1 bytes @ 0x0
   927                           
   928  0070                     ?_power_on_screen:	
   929                           ; 1 bytes @ 0x0
   930                           
   931  0070                     ?_clear_display:	
   932                           ; 1 bytes @ 0x0
   933                           
   934  0070                     ?_read_matrix_keypad:	
   935                           ; 1 bytes @ 0x0
   936                           
   937  0070                     ?_opearation_call:	
   938                           ; 1 bytes @ 0x0
   939                           
   940  0070                     ?_cooking_mode_display:	
   941                           ; 1 bytes @ 0x0
   942                           
   943  0070                     ?_time_display:	
   944                           ; 1 bytes @ 0x0
   945                           
   946  0070                     ?_set_time:	
   947                           ; 1 bytes @ 0x0
   948                           
   949  0070                     ?_set_temp:	
   950                           ; 1 bytes @ 0x0
   951                           
   952  0070                     ?_init_config:	
   953                           ; 1 bytes @ 0x0
   954                           
   955  0070                     ?_main:	
   956                           ; 1 bytes @ 0x0
   957                           
   958  0070                     ?_door_status_check:	
   959                           ; 1 bytes @ 0x0
   960                           
   961  0070                     ?_scan_keypad:	
   962                           ; 1 bytes @ 0x0
   963                           
   964  0070                     ?_init_display_controller:	
   965                           ; 1 bytes @ 0x0
   966                           
   967  0070                     ?_isr:	
   968                           ; 1 bytes @ 0x0
   969                           
   970  0070                     ??_isr:	
   971                           ; 1 bytes @ 0x0
   972                           
   973                           
   974                           ; 1 bytes @ 0x0
   975  0070                     	ds	3
   976  0073                     ??_init_matrix_keypad:	
   977  0073                     ??_init_timer2:	
   978                           ; 1 bytes @ 0x3
   979                           
   980  0073                     ?_clcd_write:	
   981                           ; 1 bytes @ 0x3
   982                           
   983  0073                     ??_scan_keypad:	
   984                           ; 1 bytes @ 0x3
   985                           
   986  0073                     ?___wmul:	
   987                           ; 1 bytes @ 0x3
   988                           
   989  0073                     ?___awdiv:	
   990                           ; 2 bytes @ 0x3
   991                           
   992  0073                     clcd_write@mode:	
   993                           ; 2 bytes @ 0x3
   994                           
   995  0073                     scan_keypad@i:	
   996                           ; 1 bytes @ 0x3
   997                           
   998  0073                     ___wmul@multiplier:	
   999                           ; 2 bytes @ 0x3
  1000                           
  1001  0073                     ___awdiv@divisor:	
  1002                           ; 2 bytes @ 0x3
  1003                           
  1004                           
  1005                           ; 2 bytes @ 0x3
  1006  0073                     	ds	1
  1007  0074                     ??_clcd_write:	
  1008                           
  1009                           ; 1 bytes @ 0x4
  1010  0074                     	ds	1
  1011  0075                     ??_read_matrix_keypad:	
  1012  0075                     ___wmul@multiplicand:	
  1013                           ; 1 bytes @ 0x5
  1014                           
  1015  0075                     ___awdiv@dividend:	
  1016                           ; 2 bytes @ 0x5
  1017                           
  1018                           
  1019                           ; 2 bytes @ 0x5
  1020  0075                     	ds	1
  1021  0076                     read_matrix_keypad@mode:	
  1022  0076                     clcd_write@byte:	
  1023                           ; 1 bytes @ 0x6
  1024                           
  1025                           
  1026                           ; 1 bytes @ 0x6
  1027  0076                     	ds	1
  1028  0077                     ??_init_clcd:	
  1029  0077                     ??_clear_display:	
  1030                           ; 1 bytes @ 0x7
  1031                           
  1032  0077                     ??_clcd_print:	
  1033                           ; 1 bytes @ 0x7
  1034                           
  1035  0077                     ??_cooking_mode_display:	
  1036                           ; 1 bytes @ 0x7
  1037                           
  1038  0077                     ??_init_config:	
  1039                           ; 1 bytes @ 0x7
  1040                           
  1041  0077                     ??_door_status_check:	
  1042                           ; 1 bytes @ 0x7
  1043                           
  1044  0077                     ??___wmul:	
  1045                           ; 1 bytes @ 0x7
  1046                           
  1047  0077                     ??___awdiv:	
  1048                           ; 1 bytes @ 0x7
  1049                           
  1050  0077                     read_matrix_keypad@key:	
  1051                           ; 1 bytes @ 0x7
  1052                           
  1053                           
  1054                           ; 1 bytes @ 0x7
  1055  0077                     	ds	1
  1056  0078                     ??_clcd_putch:	
  1057                           
  1058                           	psect	cstackBANK0
  1059  0044                     __pcstackBANK0:	
  1060                           ; 1 bytes @ 0x8
  1061                           
  1062  0044                     ?_clcd_print:	
  1063  0044                     ??_init_display_controller:	
  1064                           ; 1 bytes @ 0x0
  1065                           
  1066  0044                     ___awdiv@counter:	
  1067                           ; 1 bytes @ 0x0
  1068                           
  1069  0044                     clcd_print@str:	
  1070                           ; 1 bytes @ 0x0
  1071                           
  1072  0044                     ___wmul@product:	
  1073                           ; 2 bytes @ 0x0
  1074                           
  1075                           
  1076                           ; 2 bytes @ 0x0
  1077  0044                     	ds	1
  1078  0045                     ___awdiv@sign:	
  1079                           
  1080                           ; 1 bytes @ 0x1
  1081  0045                     	ds	1
  1082  0046                     clcd_print@addr:	
  1083  0046                     ___awdiv@quotient:	
  1084                           ; 1 bytes @ 0x2
  1085                           
  1086                           
  1087                           ; 2 bytes @ 0x2
  1088  0046                     	ds	2
  1089  0048                     ?___awmod:	
  1090  0048                     ___awmod@divisor:	
  1091                           ; 2 bytes @ 0x4
  1092                           
  1093                           
  1094                           ; 2 bytes @ 0x4
  1095  0048                     	ds	2
  1096  004A                     ___awmod@dividend:	
  1097                           
  1098                           ; 2 bytes @ 0x6
  1099  004A                     	ds	2
  1100  004C                     ??___awmod:	
  1101                           
  1102                           ; 1 bytes @ 0x8
  1103  004C                     	ds	1
  1104  004D                     ___awmod@counter:	
  1105                           
  1106                           ; 1 bytes @ 0x9
  1107  004D                     	ds	1
  1108  004E                     ___awmod@sign:	
  1109                           
  1110                           ; 1 bytes @ 0xA
  1111  004E                     	ds	1
  1112  004F                     ??_set_time:	
  1113  004F                     ?_clcd_putch:	
  1114                           ; 1 bytes @ 0xB
  1115                           
  1116  004F                     clcd_putch@addr:	
  1117                           ; 1 bytes @ 0xB
  1118                           
  1119                           
  1120                           ; 1 bytes @ 0xB
  1121  004F                     	ds	1
  1122  0050                     clcd_putch@data:	
  1123                           
  1124                           ; 1 bytes @ 0xC
  1125  0050                     	ds	1
  1126  0051                     ??_power_on_screen:	
  1127  0051                     ??_time_display:	
  1128                           ; 1 bytes @ 0xD
  1129                           
  1130  0051                     ??_set_temp:	
  1131                           ; 1 bytes @ 0xD
  1132                           
  1133  0051                     set_time@key:	
  1134                           ; 1 bytes @ 0xD
  1135                           
  1136                           
  1137                           ; 1 bytes @ 0xD
  1138  0051                     	ds	3
  1139  0054                     set_temp@key:	
  1140  0054                     power_on_screen@i:	
  1141                           ; 1 bytes @ 0x10
  1142                           
  1143                           
  1144                           ; 2 bytes @ 0x10
  1145  0054                     	ds	1
  1146  0055                     ??_opearation_call:	
  1147                           
  1148                           ; 1 bytes @ 0x11
  1149  0055                     	ds	1
  1150  0056                     power_on_screen@i_126:	
  1151                           
  1152                           ; 2 bytes @ 0x12
  1153  0056                     	ds	1
  1154  0057                     opearation_call@key:	
  1155                           
  1156                           ; 1 bytes @ 0x13
  1157  0057                     	ds	1
  1158  0058                     ??_main:	
  1159                           
  1160                           ; 1 bytes @ 0x14
  1161  0058                     	ds	3
  1162  005B                     main@key:	
  1163                           
  1164                           ; 1 bytes @ 0x17
  1165  005B                     	ds	1
  1166                           
  1167                           	psect	maintext
  1168  0633                     __pmaintext:	
  1169 ;;
  1170 ;;Main: autosize = 0, tempsize = 3, incstack = 0, save=0
  1171 ;;
  1172 ;; *************** function _main *****************
  1173 ;; Defined at:
  1174 ;;		line 30 in file "main.c"
  1175 ;; Parameters:    Size  Location     Type
  1176 ;;		None
  1177 ;; Auto vars:     Size  Location     Type
  1178 ;;  key             1   23[BANK0 ] unsigned char 
  1179 ;; Return value:  Size  Location     Type
  1180 ;;                  1    wreg      void 
  1181 ;; Registers used:
  1182 ;;		wreg, fsr0l, fsr0h, status,2, status,0, btemp+1, pclath, cstack
  1183 ;; Tracked objects:
  1184 ;;		On entry : B00/0
  1185 ;;		On exit  : 0/0
  1186 ;;		Unchanged: 0/0
  1187 ;; Data sizes:     COMMON   BANK0   BANK1   BANK3   BANK2
  1188 ;;      Params:         0       0       0       0       0
  1189 ;;      Locals:         0       1       0       0       0
  1190 ;;      Temps:          0       3       0       0       0
  1191 ;;      Totals:         0       4       0       0       0
  1192 ;;Total ram usage:        4 bytes
  1193 ;; Hardware stack levels required when called:    6
  1194 ;; This function calls:
  1195 ;;		_clcd_print
  1196 ;;		_clcd_write
  1197 ;;		_clear_display
  1198 ;;		_init_config
  1199 ;;		_opearation_call
  1200 ;;		_power_on_screen
  1201 ;;		_read_matrix_keypad
  1202 ;; This function is called by:
  1203 ;;		Startup code after reset
  1204 ;; This function uses a non-reentrant model
  1205 ;;
  1206                           
  1207                           
  1208                           ;psect for function _main
  1209  0633                     _main:	
  1210  0633                     l3040:	
  1211                           ;incstack = 0
  1212                           ; Regs used in _main: [wreg-fsr0h+status,2+status,0+btemp+1+pclath+cstack]
  1213                           
  1214                           
  1215                           ;main.c: 31:             ;;main.c: 32:         }
  1216  0633  120A  158A  2394  120A  118A  	fcall	_init_config
  1217  0638                     l3042:	
  1218                           
  1219                           ;main.c: 33:         else if(key == 1)
  1220  0638  120A  118A  246D  120A  118A  	fcall	_power_on_screen
  1221  063D                     l3044:	
  1222                           
  1223                           ;main.c: 34:         {
  1224  063D  120A  158A  235C  120A  118A  	fcall	_clear_display
  1225  0642                     l3046:	
  1226                           
  1227                           ;main.c: 35:           operation_mode = 0x02;
  1228  0642  3001               	movlw	1
  1229  0643  1283               	bcf	3,5	;RP0=0, select bank0
  1230  0644  1303               	bcf	3,6	;RP1=0, select bank0
  1231  0645  00BC               	movwf	_operation_mode
  1232  0646  3000               	movlw	0
  1233  0647  00BD               	movwf	_operation_mode+1
  1234  0648                     l3048:	
  1235                           
  1236                           ;main.c: 38:           clear_display();
  1237  0648  3001               	movlw	1
  1238  0649  120A  158A  23B2  120A  118A  	fcall	_read_matrix_keypad
  1239  064E  1283               	bcf	3,5	;RP0=0, select bank0
  1240  064F  1303               	bcf	3,6	;RP1=0, select bank0
  1241  0650  00D8               	movwf	??_main
  1242  0651  0858               	movf	??_main,w
  1243  0652  00DB               	movwf	main@key
  1244  0653                     l3050:	
  1245                           
  1246                           ;main.c: 39:           clcd_print(" Power = 900W", (0xC0 + 0));
  1247  0653  3002               	movlw	2
  1248  0654  063C               	xorwf	_operation_mode,w
  1249  0655  043D               	iorwf	_operation_mode+1,w
  1250  0656  1903               	btfsc	3,2
  1251  0657  2E59               	goto	u2801
  1252  0658  2E5A               	goto	u2800
  1253  0659                     u2801:	
  1254  0659  2F2F               	goto	l3124
  1255  065A                     u2800:	
  1256  065A                     l3052:	
  1257  065A  3003               	movlw	3
  1258  065B  063C               	xorwf	_operation_mode,w
  1259  065C  043D               	iorwf	_operation_mode+1,w
  1260  065D  1903               	btfsc	3,2
  1261  065E  2E60               	goto	u2811
  1262  065F  2E61               	goto	u2810
  1263  0660                     u2811:	
  1264  0660  2F2F               	goto	l3124
  1265  0661                     u2810:	
  1266  0661                     l3054:	
  1267  0661  3004               	movlw	4
  1268  0662  063C               	xorwf	_operation_mode,w
  1269  0663  043D               	iorwf	_operation_mode+1,w
  1270  0664  1D03               	btfss	3,2
  1271  0665  2E67               	goto	u2821
  1272  0666  2E68               	goto	u2820
  1273  0667                     u2821:	
  1274  0667  2E6A               	goto	l3056
  1275  0668                     u2820:	
  1276  0668  2F2F               	goto	l3124
  1277  0669                     l75:	
  1278                           
  1279                           ;main.c: 40:          _delay((unsigned long)((3000)*(20000000/4000.0)));;main.c: 42:    
      +                               }
  1280  0669  2F2F               	goto	l3124
  1281  066A                     l3056:	
  1282  066A  035B               	decf	main@key,w
  1283  066B  1D03               	btfss	3,2
  1284  066C  2E6E               	goto	u2831
  1285  066D  2E6F               	goto	u2830
  1286  066E                     u2831:	
  1287  066E  2EA6               	goto	l3070
  1288  066F                     u2830:	
  1289  066F                     l3058:	
  1290                           
  1291                           ;main.c: 44:         else if(key == 2);main.c: 45:         {
  1292  066F  3002               	movlw	2
  1293  0670  00BC               	movwf	_operation_mode
  1294  0671  3000               	movlw	0
  1295  0672  00BD               	movwf	_operation_mode+1
  1296                           
  1297                           ;main.c: 46:             operation_mode = 0x03;
  1298  0673  3011               	movlw	17
  1299  0674  00BA               	movwf	_reset_flag
  1300  0675  3000               	movlw	0
  1301  0676  00BB               	movwf	_reset_flag+1
  1302  0677                     l3060:	
  1303                           
  1304                           ;main.c: 47:             reset_flag = 0x12;
  1305  0677  01F3               	clrf	clcd_write@mode
  1306  0678  300C               	movlw	12
  1307  0679  120A  158A  2435  120A  118A  	fcall	_clcd_write
  1308  067E                     l3062:	
  1309                           
  1310                           ;main.c: 48:             clear_display();
  1311  067E  120A  158A  235C  120A  118A  	fcall	_clear_display
  1312  0683                     l3064:	
  1313                           
  1314                           ;main.c: 49:         }
  1315  0683  30C2               	movlw	low (STR_1| (0+32768))
  1316  0684  1283               	bcf	3,5	;RP0=0, select bank0
  1317  0685  1303               	bcf	3,6	;RP1=0, select bank0
  1318  0686  00C4               	movwf	clcd_print@str
  1319  0687  3085               	movlw	high (STR_1| (0+32768))
  1320  0688  00C5               	movwf	clcd_print@str+1
  1321  0689  30C0               	movlw	192
  1322  068A  00D8               	movwf	??_main
  1323  068B  0858               	movf	??_main,w
  1324  068C  00C6               	movwf	clcd_print@addr
  1325  068D  120A  158A  2402  120A  118A  	fcall	_clcd_print
  1326  0692                     l3066:	
  1327                           
  1328                           ;main.c: 50: 
  1329  0692  304D               	movlw	77
  1330  0693  1283               	bcf	3,5	;RP0=0, select bank0
  1331  0694  1303               	bcf	3,6	;RP1=0, select bank0
  1332  0695  00DA               	movwf	??_main+2
  1333  0696  3019               	movlw	25
  1334  0697  00D9               	movwf	??_main+1
  1335  0698  304F               	movlw	79
  1336  0699  00D8               	movwf	??_main
  1337  069A                     u2937:	
  1338  069A  0BD8               	decfsz	??_main,f
  1339  069B  2E9A               	goto	u2937
  1340  069C  0BD9               	decfsz	??_main+1,f
  1341  069D  2E9A               	goto	u2937
  1342  069E  0BDA               	decfsz	??_main+2,f
  1343  069F  2E9A               	goto	u2937
  1344  06A0                     l3068:	
  1345                           
  1346                           ;main.c: 51:         else if(key == 3)
  1347  06A0  120A  158A  235C  120A  118A  	fcall	_clear_display
  1348                           
  1349                           ;main.c: 52:         {
  1350  06A5  2F2F               	goto	l3124
  1351  06A6                     l3070:	
  1352  06A6  3002               	movlw	2
  1353  06A7  065B               	xorwf	main@key,w
  1354  06A8  1D03               	btfss	3,2
  1355  06A9  2EAB               	goto	u2841
  1356  06AA  2EAC               	goto	u2840
  1357  06AB                     u2841:	
  1358  06AB  2EB5               	goto	l3076
  1359  06AC                     u2840:	
  1360  06AC                     l3072:	
  1361                           
  1362                           ;main.c: 55:             clear_display();;main.c: 56:         }
  1363  06AC  3003               	movlw	3
  1364  06AD  00BC               	movwf	_operation_mode
  1365  06AE  3000               	movlw	0
  1366  06AF  00BD               	movwf	_operation_mode+1
  1367                           
  1368                           ;main.c: 57: 
  1369  06B0  3012               	movlw	18
  1370  06B1  00BA               	movwf	_reset_flag
  1371  06B2  3000               	movlw	0
  1372  06B3  00BB               	movwf	_reset_flag+1
  1373  06B4  2EA0               	goto	l3068
  1374  06B5                     l3076:	
  1375  06B5  3003               	movlw	3
  1376  06B6  065B               	xorwf	main@key,w
  1377  06B7  1D03               	btfss	3,2
  1378  06B8  2EBA               	goto	u2851
  1379  06B9  2EBB               	goto	u2850
  1380  06BA                     u2851:	
  1381  06BA  2EC4               	goto	l3082
  1382  06BB                     u2850:	
  1383  06BB                     l3078:	
  1384                           
  1385                           ;main.c: 62:                 min = 0;;main.c: 63:                 sec = 30;
  1386  06BB  3004               	movlw	4
  1387  06BC  00BC               	movwf	_operation_mode
  1388  06BD  3000               	movlw	0
  1389  06BE  00BD               	movwf	_operation_mode+1
  1390                           
  1391                           ;main.c: 64:                 TMR2ON = 1;
  1392  06BF  3014               	movlw	20
  1393  06C0  00BA               	movwf	_reset_flag
  1394  06C1  3000               	movlw	0
  1395  06C2  00BB               	movwf	_reset_flag+1
  1396  06C3  2EA0               	goto	l3068
  1397  06C4                     l3082:	
  1398  06C4  3004               	movlw	4
  1399  06C5  065B               	xorwf	main@key,w
  1400  06C6  1D03               	btfss	3,2
  1401  06C7  2EC9               	goto	u2861
  1402  06C8  2ECA               	goto	u2860
  1403  06C9                     u2861:	
  1404  06C9  2F18               	goto	l3112
  1405  06CA                     u2860:	
  1406  06CA                     l3084:	
  1407                           
  1408                           ;main.c: 69:             else if(operation_mode == 0x06);main.c: 70:             {
  1409  06CA  033C               	decf	_operation_mode,w
  1410  06CB  043D               	iorwf	_operation_mode+1,w
  1411  06CC  1D03               	btfss	3,2
  1412  06CD  2ECF               	goto	u2871
  1413  06CE  2ED0               	goto	u2870
  1414  06CF                     u2871:	
  1415  06CF  2EDD               	goto	l3096
  1416  06D0                     u2870:	
  1417  06D0                     l3086:	
  1418                           
  1419                           ;main.c: 71:                 sec = sec + 30;;main.c: 72:                 if(sec >= 60)
  1420  06D0  01B8               	clrf	_min
  1421  06D1  01B9               	clrf	_min+1
  1422  06D2                     l3088:	
  1423                           
  1424                           ;main.c: 73:                 {
  1425  06D2  301E               	movlw	30
  1426  06D3  00B6               	movwf	_sec
  1427  06D4  3000               	movlw	0
  1428  06D5  00B7               	movwf	_sec+1
  1429  06D6                     l3090:	
  1430                           
  1431                           ;main.c: 74:                     min++;
  1432  06D6  1512               	bsf	18,2	;volatile
  1433  06D7                     l3092:	
  1434                           
  1435                           ;main.c: 75:                     sec = sec - 60;
  1436  06D7  1507               	bsf	7,2	;volatile
  1437  06D8                     l3094:	
  1438                           
  1439                           ;main.c: 76:                 }
  1440  06D8  3006               	movlw	6
  1441  06D9  00BC               	movwf	_operation_mode
  1442  06DA  3000               	movlw	0
  1443  06DB  00BD               	movwf	_operation_mode+1
  1444                           
  1445                           ;main.c: 78:             else if(operation_mode == 0x08)
  1446  06DC  2F2F               	goto	l3124
  1447  06DD                     l3096:	
  1448  06DD  3006               	movlw	6
  1449  06DE  063C               	xorwf	_operation_mode,w
  1450  06DF  043D               	iorwf	_operation_mode+1,w
  1451  06E0  1D03               	btfss	3,2
  1452  06E1  2EE3               	goto	u2881
  1453  06E2  2EE4               	goto	u2880
  1454  06E3                     u2881:	
  1455  06E3  2F0A               	goto	l3106
  1456  06E4                     u2880:	
  1457  06E4                     l3098:	
  1458                           
  1459                           ;main.c: 80:                 TMR2ON = 1;;main.c: 81:                 RC2 = 1;
  1460  06E4  0836               	movf	_sec,w
  1461  06E5  3E1E               	addlw	30
  1462  06E6  00B6               	movwf	_sec
  1463  06E7  0837               	movf	_sec+1,w
  1464  06E8  1803               	skipnc
  1465  06E9  3E01               	addlw	1
  1466  06EA  3E00               	addlw	0
  1467  06EB  00B7               	movwf	_sec+1
  1468  06EC                     l3100:	
  1469                           
  1470                           ;main.c: 82:                 operation_mode = 0x05;
  1471  06EC  0837               	movf	_sec+1,w
  1472  06ED  3A80               	xorlw	128
  1473  06EE  00FF               	movwf	btemp+1
  1474  06EF  3080               	movlw	128
  1475  06F0  027F               	subwf	btemp+1,w
  1476  06F1  1D03               	skipz
  1477  06F2  2EF5               	goto	u2895
  1478  06F3  303C               	movlw	60
  1479  06F4  0236               	subwf	_sec,w
  1480  06F5                     u2895:	
  1481  06F5  1C03               	skipc
  1482  06F6  2EF8               	goto	u2891
  1483  06F7  2EF9               	goto	u2890
  1484  06F8                     u2891:	
  1485  06F8  2E69               	goto	l75
  1486  06F9                     u2890:	
  1487  06F9                     l3102:	
  1488                           
  1489                           ;main.c: 83:             };main.c: 84:         }
  1490  06F9  3001               	movlw	1
  1491  06FA  1283               	bcf	3,5	;RP0=0, select bank0
  1492  06FB  1303               	bcf	3,6	;RP1=0, select bank0
  1493  06FC  07B8               	addwf	_min,f
  1494  06FD  1803               	skipnc
  1495  06FE  0AB9               	incf	_min+1,f
  1496  06FF  3000               	movlw	0
  1497  0700  07B9               	addwf	_min+1,f
  1498  0701                     l3104:	
  1499                           
  1500                           ;main.c: 85:         else if(key == 5)
  1501  0701  0836               	movf	_sec,w
  1502  0702  3EC4               	addlw	196
  1503  0703  00B6               	movwf	_sec
  1504  0704  0837               	movf	_sec+1,w
  1505  0705  1803               	skipnc
  1506  0706  3E01               	addlw	1
  1507  0707  3EFF               	addlw	255
  1508  0708  00B7               	movwf	_sec+1
  1509  0709  2F2F               	goto	l3124
  1510  070A                     l3106:	
  1511  070A  3008               	movlw	8
  1512  070B  063C               	xorwf	_operation_mode,w
  1513  070C  043D               	iorwf	_operation_mode+1,w
  1514  070D  1D03               	btfss	3,2
  1515  070E  2F10               	goto	u2901
  1516  070F  2F11               	goto	u2900
  1517  0710                     u2901:	
  1518  0710  2E69               	goto	l75
  1519  0711                     u2900:	
  1520  0711                     l3108:	
  1521                           
  1522                           ;main.c: 89: ;main.c: 90:         }
  1523  0711  1512               	bsf	18,2	;volatile
  1524                           
  1525                           ;main.c: 91:         else if(key == 6)
  1526  0712  1507               	bsf	7,2	;volatile
  1527  0713                     l3110:	
  1528                           
  1529                           ;main.c: 92:         {
  1530  0713  3005               	movlw	5
  1531  0714  00BC               	movwf	_operation_mode
  1532  0715  3000               	movlw	0
  1533  0716  00BD               	movwf	_operation_mode+1
  1534  0717  2F2F               	goto	l3124
  1535  0718                     l3112:	
  1536  0718  3005               	movlw	5
  1537  0719  065B               	xorwf	main@key,w
  1538  071A  1D03               	btfss	3,2
  1539  071B  2F1D               	goto	u2911
  1540  071C  2F1E               	goto	u2910
  1541  071D                     u2911:	
  1542  071D  2F24               	goto	l3118
  1543  071E                     u2910:	
  1544  071E                     l3114:	
  1545                           
  1546                           ;main.c: 96:         };main.c: 97:         opearation_call(key);
  1547  071E  3008               	movlw	8
  1548  071F  00BC               	movwf	_operation_mode
  1549  0720  3000               	movlw	0
  1550  0721  00BD               	movwf	_operation_mode+1
  1551  0722                     l3116:	
  1552                           
  1553                           ;main.c: 98: 
  1554  0722  1107               	bcf	7,2	;volatile
  1555                           
  1556                           ;main.c: 100: }
  1557  0723  2F2F               	goto	l3124
  1558  0724                     l3118:	
  1559  0724  3006               	movlw	6
  1560  0725  065B               	xorwf	main@key,w
  1561  0726  1D03               	btfss	3,2
  1562  0727  2F29               	goto	u2921
  1563  0728  2F2A               	goto	u2920
  1564  0729                     u2921:	
  1565  0729  2E69               	goto	l75
  1566  072A                     u2920:	
  1567  072A                     l3120:	
  1568                           
  1569                           ;main.c: 102: void opearation_call(unsigned char key);main.c: 103: {
  1570  072A  3007               	movlw	7
  1571  072B  00BC               	movwf	_operation_mode
  1572  072C  3000               	movlw	0
  1573  072D  00BD               	movwf	_operation_mode+1
  1574  072E  2EA0               	goto	l3068
  1575  072F                     l3124:	
  1576                           
  1577                           ;main.c: 107:             cooking_mode_display();
  1578  072F  1283               	bcf	3,5	;RP0=0, select bank0
  1579  0730  1303               	bcf	3,6	;RP1=0, select bank0
  1580  0731  085B               	movf	main@key,w
  1581  0732  120A  158A  2665  120A  118A  	fcall	_opearation_call
  1582  0737  2E48               	goto	l3048
  1583  0738  120A  118A  2810   	ljmp	start
  1584  073B                     __end_of_main:	
  1585                           
  1586                           	psect	text1
  1587  0BB2                     __ptext1:	
  1588 ;; *************** function _read_matrix_keypad *****************
  1589 ;; Defined at:
  1590 ;;		line 116 in file "matrix_kaypad.c"
  1591 ;; Parameters:    Size  Location     Type
  1592 ;;  mode            1    wreg     unsigned char 
  1593 ;; Auto vars:     Size  Location     Type
  1594 ;;  mode            1    6[COMMON] unsigned char 
  1595 ;;  key             1    7[COMMON] unsigned char 
  1596 ;; Return value:  Size  Location     Type
  1597 ;;                  1    wreg      unsigned char 
  1598 ;; Registers used:
  1599 ;;		wreg, status,2, status,0, pclath, cstack
  1600 ;; Tracked objects:
  1601 ;;		On entry : 0/0
  1602 ;;		On exit  : 0/0
  1603 ;;		Unchanged: 0/0
  1604 ;; Data sizes:     COMMON   BANK0   BANK1   BANK3   BANK2
  1605 ;;      Params:         0       0       0       0       0
  1606 ;;      Locals:         2       0       0       0       0
  1607 ;;      Temps:          1       0       0       0       0
  1608 ;;      Totals:         3       0       0       0       0
  1609 ;;Total ram usage:        3 bytes
  1610 ;; Hardware stack levels used:    1
  1611 ;; Hardware stack levels required when called:    2
  1612 ;; This function calls:
  1613 ;;		_scan_keypad
  1614 ;; This function is called by:
  1615 ;;		_main
  1616 ;; This function uses a non-reentrant model
  1617 ;;
  1618                           
  1619                           
  1620                           ;psect for function _read_matrix_keypad
  1621  0BB2                     _read_matrix_keypad:	
  1622                           
  1623                           ;incstack = 0
  1624                           ; Regs used in _read_matrix_keypad: [wreg+status,2+status,0+pclath+cstack]
  1625                           ;read_matrix_keypad@mode stored from wreg
  1626  0BB2  00F6               	movwf	read_matrix_keypad@mode
  1627  0BB3                     l2342:	
  1628                           
  1629                           ;matrix_kaypad.c: 116: unsigned char read_matrix_keypad(unsigned char mode);matrix_kaypa
      +                          d.c: 117: {;matrix_kaypad.c: 118:     static unsigned char once = 1;;matrix_kaypad.c: 11
      +                          9:     unsigned char key;;matrix_kaypad.c: 121:     key = scan_keypad();
  1630  0BB3  120A  118A  273B  120A  158A  	fcall	_scan_keypad
  1631  0BB8  00F5               	movwf	??_read_matrix_keypad
  1632  0BB9  0875               	movf	??_read_matrix_keypad,w
  1633  0BBA  00F7               	movwf	read_matrix_keypad@key
  1634  0BBB                     l2344:	
  1635                           
  1636                           ;matrix_kaypad.c: 123:     if (mode == 0)
  1637  0BBB  0876               	movf	read_matrix_keypad@mode,w
  1638  0BBC  1D03               	btfss	3,2
  1639  0BBD  2BBF               	goto	u1951
  1640  0BBE  2BC0               	goto	u1950
  1641  0BBF                     u1951:	
  1642  0BBF  2BC2               	goto	l2352
  1643  0BC0                     u1950:	
  1644  0BC0                     l2346:	
  1645                           
  1646                           ;matrix_kaypad.c: 124:     {;matrix_kaypad.c: 125:         return key;
  1647  0BC0  0877               	movf	read_matrix_keypad@key,w
  1648  0BC1  2BD6               	goto	l261
  1649  0BC2                     l2352:	
  1650                           
  1651                           ;matrix_kaypad.c: 128:     {;matrix_kaypad.c: 129:         if ((key != 0xFF) && once)
  1652  0BC2  0A77               	incf	read_matrix_keypad@key,w
  1653  0BC3  1903               	btfsc	3,2
  1654  0BC4  2BC6               	goto	u1961
  1655  0BC5  2BC7               	goto	u1960
  1656  0BC6                     u1961:	
  1657  0BC6  2BCE               	goto	l2364
  1658  0BC7                     u1960:	
  1659  0BC7                     l2354:	
  1660  0BC7  087A               	movf	read_matrix_keypad@once,w
  1661  0BC8  1903               	btfsc	3,2
  1662  0BC9  2BCB               	goto	u1971
  1663  0BCA  2BCC               	goto	u1970
  1664  0BCB                     u1971:	
  1665  0BCB  2BCE               	goto	l2364
  1666  0BCC                     u1970:	
  1667  0BCC                     l2356:	
  1668                           
  1669                           ;matrix_kaypad.c: 130:         {;matrix_kaypad.c: 131:             once = 0;
  1670  0BCC  01FA               	clrf	read_matrix_keypad@once
  1671  0BCD  2BC0               	goto	l2346
  1672  0BCE                     l2364:	
  1673  0BCE  0A77               	incf	read_matrix_keypad@key,w
  1674  0BCF  1D03               	btfss	3,2
  1675  0BD0  2BD2               	goto	u1981
  1676  0BD1  2BD3               	goto	u1980
  1677  0BD2                     u1981:	
  1678  0BD2  2BD5               	goto	l2368
  1679  0BD3                     u1980:	
  1680  0BD3                     l2366:	
  1681                           
  1682                           ;matrix_kaypad.c: 136:         {;matrix_kaypad.c: 137:             once = 1;
  1683  0BD3  01FA               	clrf	read_matrix_keypad@once
  1684  0BD4  0AFA               	incf	read_matrix_keypad@once,f
  1685  0BD5                     l2368:	
  1686                           
  1687                           ;matrix_kaypad.c: 141:     return 0xFF;
  1688  0BD5  30FF               	movlw	255
  1689  0BD6                     l261:	
  1690  0BD6  0008               	return
  1691  0BD7                     __end_of_read_matrix_keypad:	
  1692                           
  1693                           	psect	text2
  1694  073B                     __ptext2:	
  1695 ;; *************** function _scan_keypad *****************
  1696 ;; Defined at:
  1697 ;;		line 29 in file "matrix_kaypad.c"
  1698 ;; Parameters:    Size  Location     Type
  1699 ;;		None
  1700 ;; Auto vars:     Size  Location     Type
  1701 ;;  i               2    3[COMMON] int 
  1702 ;; Return value:  Size  Location     Type
  1703 ;;                  1    wreg      unsigned char 
  1704 ;; Registers used:
  1705 ;;		wreg, status,2, status,0
  1706 ;; Tracked objects:
  1707 ;;		On entry : 0/0
  1708 ;;		On exit  : 0/0
  1709 ;;		Unchanged: 0/0
  1710 ;; Data sizes:     COMMON   BANK0   BANK1   BANK3   BANK2
  1711 ;;      Params:         0       0       0       0       0
  1712 ;;      Locals:         2       0       0       0       0
  1713 ;;      Temps:          0       0       0       0       0
  1714 ;;      Totals:         2       0       0       0       0
  1715 ;;Total ram usage:        2 bytes
  1716 ;; Hardware stack levels used:    1
  1717 ;; Hardware stack levels required when called:    1
  1718 ;; This function calls:
  1719 ;;		Nothing
  1720 ;; This function is called by:
  1721 ;;		_read_matrix_keypad
  1722 ;; This function uses a non-reentrant model
  1723 ;;
  1724                           
  1725                           
  1726                           ;psect for function _scan_keypad
  1727  073B                     _scan_keypad:	
  1728  073B                     l2214:	
  1729                           ;incstack = 0
  1730                           ; Regs used in _scan_keypad: [wreg+status,2+status,0]
  1731                           
  1732                           
  1733                           ;matrix_kaypad.c: 31:     int i;;matrix_kaypad.c: 33:     RD3 = 0;
  1734  073B  1283               	bcf	3,5	;RP0=0, select bank0
  1735  073C  1303               	bcf	3,6	;RP1=0, select bank0
  1736  073D  1188               	bcf	8,3	;volatile
  1737                           
  1738                           ;matrix_kaypad.c: 34:     RD2 = 1;
  1739  073E  1508               	bsf	8,2	;volatile
  1740                           
  1741                           ;matrix_kaypad.c: 35:     RD1 = 1;
  1742  073F  1488               	bsf	8,1	;volatile
  1743                           
  1744                           ;matrix_kaypad.c: 36:     RD0 = 1;
  1745  0740  1408               	bsf	8,0	;volatile
  1746  0741                     l2216:	
  1747                           
  1748                           ;matrix_kaypad.c: 38:     for (i = 100; i--; );
  1749  0741  3064               	movlw	100
  1750  0742  00F3               	movwf	scan_keypad@i
  1751  0743  3000               	movlw	0
  1752  0744  00F4               	movwf	scan_keypad@i+1
  1753  0745                     l2218:	
  1754  0745  30FF               	movlw	255
  1755  0746  07F3               	addwf	scan_keypad@i,f
  1756  0747  1803               	skipnc
  1757  0748  0AF4               	incf	scan_keypad@i+1,f
  1758  0749  30FF               	movlw	255
  1759  074A  07F4               	addwf	scan_keypad@i+1,f
  1760  074B  0A73               	incf	scan_keypad@i,w
  1761  074C  1D03               	skipz
  1762  074D  2F52               	goto	u1771
  1763  074E  0A74               	incf	scan_keypad@i+1,w
  1764  074F  1D03               	btfss	3,2
  1765  0750  2F52               	goto	u1771
  1766  0751  2F53               	goto	u1770
  1767  0752                     u1771:	
  1768  0752  2F45               	goto	l2218
  1769  0753                     u1770:	
  1770  0753                     l225:	
  1771                           
  1772                           ;matrix_kaypad.c: 40:     if (RB0 == 0)
  1773  0753  1283               	bcf	3,5	;RP0=0, select bank0
  1774  0754  1303               	bcf	3,6	;RP1=0, select bank0
  1775  0755  1806               	btfsc	6,0	;volatile
  1776  0756  2F58               	goto	u1781
  1777  0757  2F59               	goto	u1780
  1778  0758                     u1781:	
  1779  0758  2F5B               	goto	l226
  1780  0759                     u1780:	
  1781  0759                     l2220:	
  1782                           
  1783                           ;matrix_kaypad.c: 41:     {;matrix_kaypad.c: 42:         return 1;
  1784  0759  3001               	movlw	1
  1785  075A  2FE6               	goto	l227
  1786  075B                     l226:	
  1787                           ;matrix_kaypad.c: 44:     else if (RB1 == 0)
  1788                           
  1789  075B  1886               	btfsc	6,1	;volatile
  1790  075C  2F5E               	goto	u1791
  1791  075D  2F5F               	goto	u1790
  1792  075E                     u1791:	
  1793  075E  2F61               	goto	l229
  1794  075F                     u1790:	
  1795  075F                     l2226:	
  1796                           
  1797                           ;matrix_kaypad.c: 45:     {;matrix_kaypad.c: 46:         return 2;
  1798  075F  3002               	movlw	2
  1799  0760  2FE6               	goto	l227
  1800  0761                     l229:	
  1801                           ;matrix_kaypad.c: 48:     else if (RB2 == 0)
  1802                           
  1803  0761  1906               	btfsc	6,2	;volatile
  1804  0762  2F64               	goto	u1801
  1805  0763  2F65               	goto	u1800
  1806  0764                     u1801:	
  1807  0764  2F67               	goto	l228
  1808  0765                     u1800:	
  1809  0765                     l2232:	
  1810                           
  1811                           ;matrix_kaypad.c: 49:     {;matrix_kaypad.c: 50:         return 3;
  1812  0765  3003               	movlw	3
  1813  0766  2FE6               	goto	l227
  1814  0767                     l228:	
  1815                           
  1816                           ;matrix_kaypad.c: 53:     RD3 = 1;
  1817  0767  1588               	bsf	8,3	;volatile
  1818                           
  1819                           ;matrix_kaypad.c: 54:     RD2 = 0;
  1820  0768  1108               	bcf	8,2	;volatile
  1821                           
  1822                           ;matrix_kaypad.c: 55:     RD1 = 1;
  1823  0769  1488               	bsf	8,1	;volatile
  1824                           
  1825                           ;matrix_kaypad.c: 56:     RD0 = 1;
  1826  076A  1408               	bsf	8,0	;volatile
  1827  076B                     l2236:	
  1828                           
  1829                           ;matrix_kaypad.c: 58:     for (i = 100; i--; );
  1830  076B  3064               	movlw	100
  1831  076C  00F3               	movwf	scan_keypad@i
  1832  076D  3000               	movlw	0
  1833  076E  00F4               	movwf	scan_keypad@i+1
  1834  076F                     l2238:	
  1835  076F  30FF               	movlw	255
  1836  0770  07F3               	addwf	scan_keypad@i,f
  1837  0771  1803               	skipnc
  1838  0772  0AF4               	incf	scan_keypad@i+1,f
  1839  0773  30FF               	movlw	255
  1840  0774  07F4               	addwf	scan_keypad@i+1,f
  1841  0775  0A73               	incf	scan_keypad@i,w
  1842  0776  1D03               	skipz
  1843  0777  2F7C               	goto	u1811
  1844  0778  0A74               	incf	scan_keypad@i+1,w
  1845  0779  1D03               	btfss	3,2
  1846  077A  2F7C               	goto	u1811
  1847  077B  2F7D               	goto	u1810
  1848  077C                     u1811:	
  1849  077C  2F6F               	goto	l2238
  1850  077D                     u1810:	
  1851  077D                     l234:	
  1852                           
  1853                           ;matrix_kaypad.c: 60:     if (RB0 == 0)
  1854  077D  1283               	bcf	3,5	;RP0=0, select bank0
  1855  077E  1303               	bcf	3,6	;RP1=0, select bank0
  1856  077F  1806               	btfsc	6,0	;volatile
  1857  0780  2F82               	goto	u1821
  1858  0781  2F83               	goto	u1820
  1859  0782                     u1821:	
  1860  0782  2F85               	goto	l235
  1861  0783                     u1820:	
  1862  0783                     l2240:	
  1863                           
  1864                           ;matrix_kaypad.c: 61:     {;matrix_kaypad.c: 62:         return 4;
  1865  0783  3004               	movlw	4
  1866  0784  2FE6               	goto	l227
  1867  0785                     l235:	
  1868                           ;matrix_kaypad.c: 64:     else if (RB1 == 0)
  1869                           
  1870  0785  1886               	btfsc	6,1	;volatile
  1871  0786  2F88               	goto	u1831
  1872  0787  2F89               	goto	u1830
  1873  0788                     u1831:	
  1874  0788  2F8B               	goto	l237
  1875  0789                     u1830:	
  1876  0789                     l2246:	
  1877                           
  1878                           ;matrix_kaypad.c: 65:     {;matrix_kaypad.c: 66:         return 5;
  1879  0789  3005               	movlw	5
  1880  078A  2FE6               	goto	l227
  1881  078B                     l237:	
  1882                           ;matrix_kaypad.c: 68:     else if (RB2 == 0)
  1883                           
  1884  078B  1906               	btfsc	6,2	;volatile
  1885  078C  2F8E               	goto	u1841
  1886  078D  2F8F               	goto	u1840
  1887  078E                     u1841:	
  1888  078E  2F91               	goto	l236
  1889  078F                     u1840:	
  1890  078F                     l2252:	
  1891                           
  1892                           ;matrix_kaypad.c: 69:     {;matrix_kaypad.c: 70:         return 6;
  1893  078F  3006               	movlw	6
  1894  0790  2FE6               	goto	l227
  1895  0791                     l236:	
  1896                           
  1897                           ;matrix_kaypad.c: 73:     RD3 = 1;
  1898  0791  1588               	bsf	8,3	;volatile
  1899                           
  1900                           ;matrix_kaypad.c: 74:     RD2 = 1;
  1901  0792  1508               	bsf	8,2	;volatile
  1902                           
  1903                           ;matrix_kaypad.c: 75:     RD1 = 0;
  1904  0793  1088               	bcf	8,1	;volatile
  1905                           
  1906                           ;matrix_kaypad.c: 76:     RD0 = 1;
  1907  0794  1408               	bsf	8,0	;volatile
  1908  0795                     l2256:	
  1909                           
  1910                           ;matrix_kaypad.c: 78:     for (i = 100; i--; );
  1911  0795  3064               	movlw	100
  1912  0796  00F3               	movwf	scan_keypad@i
  1913  0797  3000               	movlw	0
  1914  0798  00F4               	movwf	scan_keypad@i+1
  1915  0799                     l2258:	
  1916  0799  30FF               	movlw	255
  1917  079A  07F3               	addwf	scan_keypad@i,f
  1918  079B  1803               	skipnc
  1919  079C  0AF4               	incf	scan_keypad@i+1,f
  1920  079D  30FF               	movlw	255
  1921  079E  07F4               	addwf	scan_keypad@i+1,f
  1922  079F  0A73               	incf	scan_keypad@i,w
  1923  07A0  1D03               	skipz
  1924  07A1  2FA6               	goto	u1851
  1925  07A2  0A74               	incf	scan_keypad@i+1,w
  1926  07A3  1D03               	btfss	3,2
  1927  07A4  2FA6               	goto	u1851
  1928  07A5  2FA7               	goto	u1850
  1929  07A6                     u1851:	
  1930  07A6  2F99               	goto	l2258
  1931  07A7                     u1850:	
  1932  07A7                     l242:	
  1933                           
  1934                           ;matrix_kaypad.c: 80:     if (RB0 == 0)
  1935  07A7  1283               	bcf	3,5	;RP0=0, select bank0
  1936  07A8  1303               	bcf	3,6	;RP1=0, select bank0
  1937  07A9  1806               	btfsc	6,0	;volatile
  1938  07AA  2FAC               	goto	u1861
  1939  07AB  2FAD               	goto	u1860
  1940  07AC                     u1861:	
  1941  07AC  2FAF               	goto	l243
  1942  07AD                     u1860:	
  1943  07AD                     l2260:	
  1944                           
  1945                           ;matrix_kaypad.c: 81:     {;matrix_kaypad.c: 82:         return 7;
  1946  07AD  3007               	movlw	7
  1947  07AE  2FE6               	goto	l227
  1948  07AF                     l243:	
  1949                           ;matrix_kaypad.c: 84:     else if (RB1 == 0)
  1950                           
  1951  07AF  1886               	btfsc	6,1	;volatile
  1952  07B0  2FB2               	goto	u1871
  1953  07B1  2FB3               	goto	u1870
  1954  07B2                     u1871:	
  1955  07B2  2FB5               	goto	l245
  1956  07B3                     u1870:	
  1957  07B3                     l2266:	
  1958                           
  1959                           ;matrix_kaypad.c: 85:     {;matrix_kaypad.c: 86:         return 8;
  1960  07B3  3008               	movlw	8
  1961  07B4  2FE6               	goto	l227
  1962  07B5                     l245:	
  1963                           ;matrix_kaypad.c: 88:     else if (RB2 == 0)
  1964                           
  1965  07B5  1906               	btfsc	6,2	;volatile
  1966  07B6  2FB8               	goto	u1881
  1967  07B7  2FB9               	goto	u1880
  1968  07B8                     u1881:	
  1969  07B8  2FBB               	goto	l244
  1970  07B9                     u1880:	
  1971  07B9                     l2272:	
  1972                           
  1973                           ;matrix_kaypad.c: 89:     {;matrix_kaypad.c: 90:         return 9;
  1974  07B9  3009               	movlw	9
  1975  07BA  2FE6               	goto	l227
  1976  07BB                     l244:	
  1977                           
  1978                           ;matrix_kaypad.c: 93:     RD3 = 1;
  1979  07BB  1588               	bsf	8,3	;volatile
  1980                           
  1981                           ;matrix_kaypad.c: 94:     RD2 = 1;
  1982  07BC  1508               	bsf	8,2	;volatile
  1983                           
  1984                           ;matrix_kaypad.c: 95:     RD1 = 1;
  1985  07BD  1488               	bsf	8,1	;volatile
  1986                           
  1987                           ;matrix_kaypad.c: 96:     RD0 = 0;
  1988  07BE  1008               	bcf	8,0	;volatile
  1989  07BF                     l2276:	
  1990                           
  1991                           ;matrix_kaypad.c: 98:     for (i = 100; i--; );
  1992  07BF  3064               	movlw	100
  1993  07C0  00F3               	movwf	scan_keypad@i
  1994  07C1  3000               	movlw	0
  1995  07C2  00F4               	movwf	scan_keypad@i+1
  1996  07C3                     l2278:	
  1997  07C3  30FF               	movlw	255
  1998  07C4  07F3               	addwf	scan_keypad@i,f
  1999  07C5  1803               	skipnc
  2000  07C6  0AF4               	incf	scan_keypad@i+1,f
  2001  07C7  30FF               	movlw	255
  2002  07C8  07F4               	addwf	scan_keypad@i+1,f
  2003  07C9  0A73               	incf	scan_keypad@i,w
  2004  07CA  1D03               	skipz
  2005  07CB  2FD0               	goto	u1891
  2006  07CC  0A74               	incf	scan_keypad@i+1,w
  2007  07CD  1D03               	btfss	3,2
  2008  07CE  2FD0               	goto	u1891
  2009  07CF  2FD1               	goto	u1890
  2010  07D0                     u1891:	
  2011  07D0  2FC3               	goto	l2278
  2012  07D1                     u1890:	
  2013  07D1                     l250:	
  2014                           
  2015                           ;matrix_kaypad.c: 100:     if (RB0 == 0)
  2016  07D1  1283               	bcf	3,5	;RP0=0, select bank0
  2017  07D2  1303               	bcf	3,6	;RP1=0, select bank0
  2018  07D3  1806               	btfsc	6,0	;volatile
  2019  07D4  2FD6               	goto	u1901
  2020  07D5  2FD7               	goto	u1900
  2021  07D6                     u1901:	
  2022  07D6  2FD9               	goto	l251
  2023  07D7                     u1900:	
  2024  07D7                     l2280:	
  2025                           
  2026                           ;matrix_kaypad.c: 101:     {;matrix_kaypad.c: 102:         return '*';
  2027  07D7  302A               	movlw	42
  2028  07D8  2FE6               	goto	l227
  2029  07D9                     l251:	
  2030                           ;matrix_kaypad.c: 104:     else if (RB1 == 0)
  2031                           
  2032  07D9  1886               	btfsc	6,1	;volatile
  2033  07DA  2FDC               	goto	u1911
  2034  07DB  2FDD               	goto	u1910
  2035  07DC                     u1911:	
  2036  07DC  2FDF               	goto	l253
  2037  07DD                     u1910:	
  2038  07DD                     l2286:	
  2039                           
  2040                           ;matrix_kaypad.c: 105:     {;matrix_kaypad.c: 106:         return 0;
  2041  07DD  3000               	movlw	0
  2042  07DE  2FE6               	goto	l227
  2043  07DF                     l253:	
  2044                           ;matrix_kaypad.c: 108:     else if (RB2 == 0)
  2045                           
  2046  07DF  1906               	btfsc	6,2	;volatile
  2047  07E0  2FE2               	goto	u1921
  2048  07E1  2FE3               	goto	u1920
  2049  07E2                     u1921:	
  2050  07E2  2FE5               	goto	l2296
  2051  07E3                     u1920:	
  2052  07E3                     l2292:	
  2053                           
  2054                           ;matrix_kaypad.c: 109:     {;matrix_kaypad.c: 110:         return '#';
  2055  07E3  3023               	movlw	35
  2056  07E4  2FE6               	goto	l227
  2057  07E5                     l2296:	
  2058                           
  2059                           ;matrix_kaypad.c: 113:     return 0xFF;
  2060  07E5  30FF               	movlw	255
  2061  07E6                     l227:	
  2062  07E6  0008               	return
  2063  07E7                     __end_of_scan_keypad:	
  2064                           
  2065                           	psect	text3
  2066  046D                     __ptext3:	
  2067 ;; *************** function _power_on_screen *****************
  2068 ;; Defined at:
  2069 ;;		line 181 in file "main.c"
  2070 ;; Parameters:    Size  Location     Type
  2071 ;;		None
  2072 ;; Auto vars:     Size  Location     Type
  2073 ;;  i               2   18[BANK0 ] int 
  2074 ;;  i               2   16[BANK0 ] int 
  2075 ;; Return value:  Size  Location     Type
  2076 ;;                  1    wreg      void 
  2077 ;; Registers used:
  2078 ;;		wreg, fsr0l, fsr0h, status,2, status,0, btemp+1, pclath, cstack
  2079 ;; Tracked objects:
  2080 ;;		On entry : 0/0
  2081 ;;		On exit  : 0/0
  2082 ;;		Unchanged: 0/0
  2083 ;; Data sizes:     COMMON   BANK0   BANK1   BANK3   BANK2
  2084 ;;      Params:         0       0       0       0       0
  2085 ;;      Locals:         0       4       0       0       0
  2086 ;;      Temps:          0       3       0       0       0
  2087 ;;      Totals:         0       7       0       0       0
  2088 ;;Total ram usage:        7 bytes
  2089 ;; Hardware stack levels used:    1
  2090 ;; Hardware stack levels required when called:    3
  2091 ;; This function calls:
  2092 ;;		_clcd_print
  2093 ;;		_clcd_putch
  2094 ;; This function is called by:
  2095 ;;		_main
  2096 ;; This function uses a non-reentrant model
  2097 ;;
  2098                           
  2099                           
  2100                           ;psect for function _power_on_screen
  2101  046D                     _power_on_screen:	
  2102  046D                     l2962:	
  2103                           ;incstack = 0
  2104                           ; Regs used in _power_on_screen: [wreg-fsr0h+status,2+status,0+btemp+1+pclath+cstack]
  2105                           
  2106                           
  2107                           ;main.c: 182: 
  2108  046D  1283               	bcf	3,5	;RP0=0, select bank0
  2109  046E  1303               	bcf	3,6	;RP1=0, select bank0
  2110  046F  01D4               	clrf	power_on_screen@i
  2111  0470  01D5               	clrf	power_on_screen@i+1
  2112  0471                     l2968:	
  2113                           
  2114                           ;main.c: 183:     _delay((unsigned long)((1000)*(20000000/4000.0)));;main.c: 184: }
  2115  0471  1283               	bcf	3,5	;RP0=0, select bank0
  2116  0472  1303               	bcf	3,6	;RP1=0, select bank0
  2117  0473  0854               	movf	power_on_screen@i,w
  2118  0474  3E80               	addlw	128
  2119  0475  00D1               	movwf	??_power_on_screen
  2120  0476  0851               	movf	??_power_on_screen,w
  2121  0477  00CF               	movwf	clcd_putch@addr
  2122  0478  30FF               	movlw	255
  2123  0479  120A  118A  27E7  120A  118A  	fcall	_clcd_putch
  2124  047E                     l2970:	
  2125                           
  2126                           ;main.c: 185: 
  2127  047E  3001               	movlw	1
  2128  047F  1283               	bcf	3,5	;RP0=0, select bank0
  2129  0480  1303               	bcf	3,6	;RP1=0, select bank0
  2130  0481  07D4               	addwf	power_on_screen@i,f
  2131  0482  1803               	skipnc
  2132  0483  0AD5               	incf	power_on_screen@i+1,f
  2133  0484  3000               	movlw	0
  2134  0485  07D5               	addwf	power_on_screen@i+1,f
  2135  0486                     l2972:	
  2136  0486  0855               	movf	power_on_screen@i+1,w
  2137  0487  3A80               	xorlw	128
  2138  0488  00FF               	movwf	btemp+1
  2139  0489  3080               	movlw	128
  2140  048A  027F               	subwf	btemp+1,w
  2141  048B  1D03               	skipz
  2142  048C  2C8F               	goto	u2745
  2143  048D  3010               	movlw	16
  2144  048E  0254               	subwf	power_on_screen@i,w
  2145  048F                     u2745:	
  2146  048F  1C03               	skipc
  2147  0490  2C92               	goto	u2741
  2148  0491  2C93               	goto	u2740
  2149  0492                     u2741:	
  2150  0492  2C71               	goto	l2968
  2151  0493                     u2740:	
  2152  0493                     l2974:	
  2153                           
  2154                           ;main.c: 186: void cooking_mode_display(void){
  2155  0493  3087               	movlw	low (STR_2| (0+32768))
  2156  0494  1283               	bcf	3,5	;RP0=0, select bank0
  2157  0495  1303               	bcf	3,6	;RP1=0, select bank0
  2158  0496  00C4               	movwf	clcd_print@str
  2159  0497  3085               	movlw	high (STR_2| (0+32768))
  2160  0498  00C5               	movwf	clcd_print@str+1
  2161  0499  30C0               	movlw	192
  2162  049A  00D1               	movwf	??_power_on_screen
  2163  049B  0851               	movf	??_power_on_screen,w
  2164  049C  00C6               	movwf	clcd_print@addr
  2165  049D  120A  158A  2402  120A  118A  	fcall	_clcd_print
  2166                           
  2167                           ;main.c: 187:     clcd_print("1.Micro", (0x80 + 0));
  2168  04A2  3033               	movlw	low (STR_3| (0+32768))
  2169  04A3  1283               	bcf	3,5	;RP0=0, select bank0
  2170  04A4  1303               	bcf	3,6	;RP1=0, select bank0
  2171  04A5  00C4               	movwf	clcd_print@str
  2172  04A6  3085               	movlw	high (STR_3| (0+32768))
  2173  04A7  00C5               	movwf	clcd_print@str+1
  2174  04A8  3090               	movlw	144
  2175  04A9  00D1               	movwf	??_power_on_screen
  2176  04AA  0851               	movf	??_power_on_screen,w
  2177  04AB  00C6               	movwf	clcd_print@addr
  2178  04AC  120A  158A  2402  120A  118A  	fcall	_clcd_print
  2179  04B1                     l2976:	
  2180                           
  2181                           ;main.c: 188:     clcd_print("2.Grill", (0xC0 + 0));
  2182  04B1  1283               	bcf	3,5	;RP0=0, select bank0
  2183  04B2  1303               	bcf	3,6	;RP1=0, select bank0
  2184  04B3  01D6               	clrf	power_on_screen@i_126
  2185  04B4  01D7               	clrf	power_on_screen@i_126+1
  2186  04B5                     l2982:	
  2187                           
  2188                           ;main.c: 189:     clcd_print("3.Convection", (0x90 + 0));;main.c: 190:     clcd_print("4
      +                          .Start", (0xD0 + 0));
  2189  04B5  1283               	bcf	3,5	;RP0=0, select bank0
  2190  04B6  1303               	bcf	3,6	;RP1=0, select bank0
  2191  04B7  0856               	movf	power_on_screen@i_126,w
  2192  04B8  3ED0               	addlw	208
  2193  04B9  00D1               	movwf	??_power_on_screen
  2194  04BA  0851               	movf	??_power_on_screen,w
  2195  04BB  00CF               	movwf	clcd_putch@addr
  2196  04BC  30FF               	movlw	255
  2197  04BD  120A  118A  27E7  120A  118A  	fcall	_clcd_putch
  2198  04C2                     l2984:	
  2199                           
  2200                           ;main.c: 191: }
  2201  04C2  3001               	movlw	1
  2202  04C3  1283               	bcf	3,5	;RP0=0, select bank0
  2203  04C4  1303               	bcf	3,6	;RP1=0, select bank0
  2204  04C5  07D6               	addwf	power_on_screen@i_126,f
  2205  04C6  1803               	skipnc
  2206  04C7  0AD7               	incf	power_on_screen@i_126+1,f
  2207  04C8  3000               	movlw	0
  2208  04C9  07D7               	addwf	power_on_screen@i_126+1,f
  2209  04CA                     l2986:	
  2210  04CA  0857               	movf	power_on_screen@i_126+1,w
  2211  04CB  3A80               	xorlw	128
  2212  04CC  00FF               	movwf	btemp+1
  2213  04CD  3080               	movlw	128
  2214  04CE  027F               	subwf	btemp+1,w
  2215  04CF  1D03               	skipz
  2216  04D0  2CD3               	goto	u2755
  2217  04D1  3010               	movlw	16
  2218  04D2  0256               	subwf	power_on_screen@i_126,w
  2219  04D3                     u2755:	
  2220  04D3  1C03               	skipc
  2221  04D4  2CD6               	goto	u2751
  2222  04D5  2CD7               	goto	u2750
  2223  04D6                     u2751:	
  2224  04D6  2CB5               	goto	l2982
  2225  04D7                     u2750:	
  2226  04D7                     l2988:	
  2227                           
  2228                           ;main.c: 193: void clear_display(void){
  2229  04D7  301A               	movlw	26
  2230  04D8  1283               	bcf	3,5	;RP0=0, select bank0
  2231  04D9  1303               	bcf	3,6	;RP1=0, select bank0
  2232  04DA  00D3               	movwf	??_power_on_screen+2
  2233  04DB  305E               	movlw	94
  2234  04DC  00D2               	movwf	??_power_on_screen+1
  2235  04DD  306D               	movlw	109
  2236  04DE  00D1               	movwf	??_power_on_screen
  2237  04DF                     u2947:	
  2238  04DF  0BD1               	decfsz	??_power_on_screen,f
  2239  04E0  2CDF               	goto	u2947
  2240  04E1  0BD2               	decfsz	??_power_on_screen+1,f
  2241  04E2  2CDF               	goto	u2947
  2242  04E3  0BD3               	decfsz	??_power_on_screen+2,f
  2243  04E4  2CDF               	goto	u2947
  2244  04E5  2CE6               	nop2
  2245  04E6                     l122:	
  2246  04E6  0008               	return
  2247  04E7                     __end_of_power_on_screen:	
  2248                           
  2249                           	psect	text4
  2250  0E65                     __ptext4:	
  2251 ;; *************** function _opearation_call *****************
  2252 ;; Defined at:
  2253 ;;		line 112 in file "main.c"
  2254 ;; Parameters:    Size  Location     Type
  2255 ;;  key             1    wreg     unsigned char 
  2256 ;; Auto vars:     Size  Location     Type
  2257 ;;  key             1   19[BANK0 ] unsigned char 
  2258 ;; Return value:  Size  Location     Type
  2259 ;;                  1    wreg      void 
  2260 ;; Registers used:
  2261 ;;		wreg, fsr0l, fsr0h, status,2, status,0, btemp+1, pclath, cstack
  2262 ;; Tracked objects:
  2263 ;;		On entry : 0/0
  2264 ;;		On exit  : 0/0
  2265 ;;		Unchanged: 0/0
  2266 ;; Data sizes:     COMMON   BANK0   BANK1   BANK3   BANK2
  2267 ;;      Params:         0       0       0       0       0
  2268 ;;      Locals:         0       1       0       0       0
  2269 ;;      Temps:          0       2       0       0       0
  2270 ;;      Totals:         0       3       0       0       0
  2271 ;;Total ram usage:        3 bytes
  2272 ;; Hardware stack levels used:    1
  2273 ;; Hardware stack levels required when called:    5
  2274 ;; This function calls:
  2275 ;;		_clear_display
  2276 ;;		_cooking_mode_display
  2277 ;;		_set_temp
  2278 ;;		_set_time
  2279 ;;		_time_display
  2280 ;; This function is called by:
  2281 ;;		_main
  2282 ;; This function uses a non-reentrant model
  2283 ;;
  2284                           
  2285                           
  2286                           ;psect for function _opearation_call
  2287  0E65                     _opearation_call:	
  2288                           
  2289                           ;incstack = 0
  2290                           ; Regs used in _opearation_call: [wreg-fsr0h+status,2+status,0+btemp+1+pclath+cstack]
  2291                           ;opearation_call@key stored from wreg
  2292  0E65  1283               	bcf	3,5	;RP0=0, select bank0
  2293  0E66  1303               	bcf	3,6	;RP1=0, select bank0
  2294  0E67  00D7               	movwf	opearation_call@key
  2295  0E68                     l2990:	
  2296                           
  2297                           ;main.c: 112:             break;;main.c: 113: ;main.c: 114:         case 0x02:
  2298  0E68  2ED8               	goto	l3028
  2299  0E69                     l2992:	
  2300                           
  2301                           ;main.c: 117:             break;
  2302  0E69  120A  158A  246B  120A  158A  	fcall	_cooking_mode_display
  2303                           
  2304                           ;main.c: 118:             case 0x03:
  2305  0E6E  2EF4               	goto	l3030
  2306  0E6F                     l2994:	
  2307                           
  2308                           ;main.c: 121:         case 0x04:
  2309  0E6F  120A  158A  2701  120A  158A  	fcall	_time_display
  2310                           
  2311                           ;main.c: 122:             if(heat_flag == 0)
  2312  0E74  2EF4               	goto	l3030
  2313  0E75                     l2996:	
  2314                           
  2315                           ;main.c: 125:             if(ret == 1)
  2316  0E75  0857               	movf	opearation_call@key,w
  2317  0E76  120A  118A  226A  120A  158A  	fcall	_set_time
  2318                           
  2319                           ;main.c: 127:                 flag = 1;
  2320  0E7B  2EF4               	goto	l3030
  2321  0E7C                     l2998:	
  2322                           
  2323                           ;main.c: 129: 
  2324  0E7C  0857               	movf	opearation_call@key,w
  2325  0E7D  120A  118A  226A  120A  158A  	fcall	_set_time
  2326                           
  2327                           ;main.c: 130:             }
  2328  0E82  2EF4               	goto	l3030
  2329  0E83                     l3000:	
  2330                           
  2331                           ;main.c: 132:             {
  2332  0E83  0830               	movf	_heat_flag,w
  2333  0E84  0431               	iorwf	_heat_flag+1,w
  2334  0E85  1D03               	btfss	3,2
  2335  0E86  2E88               	goto	u2761
  2336  0E87  2E89               	goto	u2760
  2337  0E88                     u2761:	
  2338  0E88  2ECA               	goto	l3022
  2339  0E89                     u2760:	
  2340  0E89                     l3002:	
  2341                           
  2342                           ;main.c: 133:                 TMR2ON = 0;;main.c: 134:                 flag = 1;
  2343  0E89  0857               	movf	opearation_call@key,w
  2344  0E8A  120A  118A  2028  120A  158A  	fcall	_set_temp
  2345  0E8F  1283               	bcf	3,5	;RP0=0, select bank0
  2346  0E90  1303               	bcf	3,6	;RP1=0, select bank0
  2347  0E91  00D5               	movwf	??_opearation_call
  2348  0E92  01D6               	clrf	??_opearation_call+1
  2349  0E93  0855               	movf	??_opearation_call,w
  2350  0E94  00B4               	movwf	_ret
  2351  0E95  0856               	movf	??_opearation_call+1,w
  2352  0E96  00B5               	movwf	_ret+1
  2353  0E97                     l3004:	
  2354                           
  2355                           ;main.c: 135:                 heat_flag = 1;
  2356  0E97  0334               	decf	_ret,w
  2357  0E98  0435               	iorwf	_ret+1,w
  2358  0E99  1D03               	btfss	3,2
  2359  0E9A  2E9C               	goto	u2771
  2360  0E9B  2E9D               	goto	u2770
  2361  0E9C                     u2771:	
  2362  0E9C  2EA6               	goto	l3008
  2363  0E9D                     u2770:	
  2364  0E9D                     l3006:	
  2365                           
  2366                           ;main.c: 136:                 clear_display();;main.c: 137:                 reset_flag =
      +                           0x13;
  2367  0E9D  3001               	movlw	1
  2368  0E9E  00B2               	movwf	_flag
  2369  0E9F  3000               	movlw	0
  2370  0EA0  00B3               	movwf	_flag+1
  2371                           
  2372                           ;main.c: 138:                 set_time(key);
  2373  0EA1  3014               	movlw	20
  2374  0EA2  00BA               	movwf	_reset_flag
  2375  0EA3  3000               	movlw	0
  2376  0EA4  00BB               	movwf	_reset_flag+1
  2377                           
  2378                           ;main.c: 140:             else
  2379  0EA5  2EF4               	goto	l3030
  2380  0EA6                     l3008:	
  2381  0EA6  0834               	movf	_ret,w
  2382  0EA7  0435               	iorwf	_ret+1,w
  2383  0EA8  1D03               	btfss	3,2
  2384  0EA9  2EAB               	goto	u2781
  2385  0EAA  2EAC               	goto	u2780
  2386  0EAB                     u2781:	
  2387  0EAB  2EC7               	goto	l3020
  2388  0EAC                     u2780:	
  2389  0EAC                     l3010:	
  2390                           
  2391                           ;main.c: 142:                 flag = 0;;main.c: 143:             }
  2392  0EAC  1112               	bcf	18,2	;volatile
  2393  0EAD                     l3012:	
  2394                           
  2395                           ;main.c: 144:            }
  2396  0EAD  3001               	movlw	1
  2397  0EAE  00B2               	movwf	_flag
  2398  0EAF  3000               	movlw	0
  2399  0EB0  00B3               	movwf	_flag+1
  2400                           
  2401                           ;main.c: 145:             else
  2402  0EB1  3001               	movlw	1
  2403  0EB2  00B0               	movwf	_heat_flag
  2404  0EB3  3000               	movlw	0
  2405  0EB4  00B1               	movwf	_heat_flag+1
  2406  0EB5                     l3014:	
  2407                           
  2408                           ;main.c: 146:             {
  2409  0EB5  120A  158A  235C  120A  158A  	fcall	_clear_display
  2410  0EBA                     l3016:	
  2411                           
  2412                           ;main.c: 147:                 set_time(key);
  2413  0EBA  3013               	movlw	19
  2414  0EBB  1283               	bcf	3,5	;RP0=0, select bank0
  2415  0EBC  1303               	bcf	3,6	;RP1=0, select bank0
  2416  0EBD  00BA               	movwf	_reset_flag
  2417  0EBE  3000               	movlw	0
  2418  0EBF  00BB               	movwf	_reset_flag+1
  2419  0EC0                     l3018:	
  2420                           
  2421                           ;main.c: 148:             }
  2422  0EC0  0857               	movf	opearation_call@key,w
  2423  0EC1  120A  118A  226A  120A  158A  	fcall	_set_time
  2424                           
  2425                           ;main.c: 149:                break;
  2426  0EC6  2EF4               	goto	l3030
  2427  0EC7                     l3020:	
  2428                           
  2429                           ;main.c: 151:             TMR2ON = 0;;main.c: 152:             RC2 = 0;
  2430  0EC7  01B2               	clrf	_flag
  2431  0EC8  01B3               	clrf	_flag+1
  2432  0EC9  2EF4               	goto	l3030
  2433  0ECA                     l3022:	
  2434                           
  2435                           ;main.c: 156: ;main.c: 157: 
  2436  0ECA  0857               	movf	opearation_call@key,w
  2437  0ECB  120A  118A  226A  120A  158A  	fcall	_set_time
  2438  0ED0  2EF4               	goto	l3030
  2439  0ED1                     l113:	
  2440                           ;main.c: 160:     }
  2441                           
  2442                           
  2443                           ;main.c: 161:     if(flag == 0)
  2444  0ED1  1112               	bcf	18,2	;volatile
  2445                           
  2446                           ;main.c: 162:     {
  2447  0ED2  1107               	bcf	7,2	;volatile
  2448  0ED3                     l3024:	
  2449                           
  2450                           ;main.c: 163:           reset_flag = 0x0F;
  2451  0ED3  3001               	movlw	1
  2452  0ED4  00BC               	movwf	_operation_mode
  2453  0ED5  3000               	movlw	0
  2454  0ED6  00BD               	movwf	_operation_mode+1
  2455                           
  2456                           ;main.c: 164:     }
  2457  0ED7  2EF4               	goto	l3030
  2458  0ED8                     l3028:	
  2459                           
  2460                           ; Switch on 2 bytes has been partitioned into a top level switch of size 1, and 1 sub-sw
      +                          itches
  2461                           ; Switch size 1, requested type "simple"
  2462                           ; Number of cases is 1, Range of values is 0 to 0
  2463                           ; switch strategies available:
  2464                           ; Name         Instructions Cycles
  2465                           ; simple_byte            4     3 (average)
  2466                           ; direct_byte           11     8 (fixed)
  2467                           ; jumptable            260     6 (fixed)
  2468                           ;	Chosen strategy is simple_byte
  2469  0ED8  083D               	movf	_operation_mode+1,w
  2470  0ED9  3A00               	xorlw	0	; case 0
  2471  0EDA  1903               	skipnz
  2472  0EDB  2EDD               	goto	l3176
  2473  0EDC  2EF4               	goto	l3030
  2474  0EDD                     l3176:	
  2475                           
  2476                           ; Switch size 1, requested type "simple"
  2477                           ; Number of cases is 7, Range of values is 1 to 7
  2478                           ; switch strategies available:
  2479                           ; Name         Instructions Cycles
  2480                           ; simple_byte           22    12 (average)
  2481                           ; direct_byte           32    11 (fixed)
  2482                           ; jumptable            263     9 (fixed)
  2483                           ;	Chosen strategy is simple_byte
  2484  0EDD  083C               	movf	_operation_mode,w
  2485  0EDE  3A01               	xorlw	1	; case 1
  2486  0EDF  1903               	skipnz
  2487  0EE0  2E69               	goto	l2992
  2488  0EE1  3A03               	xorlw	3	; case 2
  2489  0EE2  1903               	skipnz
  2490  0EE3  2E75               	goto	l2996
  2491  0EE4  3A01               	xorlw	1	; case 3
  2492  0EE5  1903               	skipnz
  2493  0EE6  2E7C               	goto	l2998
  2494  0EE7  3A07               	xorlw	7	; case 4
  2495  0EE8  1903               	skipnz
  2496  0EE9  2E83               	goto	l3000
  2497  0EEA  3A01               	xorlw	1	; case 5
  2498  0EEB  1903               	skipnz
  2499  0EEC  2E6F               	goto	l2994
  2500  0EED  3A03               	xorlw	3	; case 6
  2501  0EEE  1903               	skipnz
  2502  0EEF  2E6F               	goto	l2994
  2503  0EF0  3A01               	xorlw	1	; case 7
  2504  0EF1  1903               	skipnz
  2505  0EF2  2ED1               	goto	l113
  2506  0EF3  2EF4               	goto	l3030
  2507  0EF4                     l3030:	
  2508                           
  2509                           ;main.c: 171: void power_on_screen(void) {
  2510  0EF4  1283               	bcf	3,5	;RP0=0, select bank0
  2511  0EF5  1303               	bcf	3,6	;RP1=0, select bank0
  2512  0EF6  0832               	movf	_flag,w
  2513  0EF7  0433               	iorwf	_flag+1,w
  2514  0EF8  1D03               	btfss	3,2
  2515  0EF9  2EFB               	goto	u2791
  2516  0EFA  2EFC               	goto	u2790
  2517  0EFB                     u2791:	
  2518  0EFB  2F00               	goto	l115
  2519  0EFC                     u2790:	
  2520  0EFC                     l3032:	
  2521                           
  2522                           ;main.c: 172:     for(int i = 0; i < 16; i++);main.c: 173:     {
  2523  0EFC  300F               	movlw	15
  2524  0EFD  00BA               	movwf	_reset_flag
  2525  0EFE  3000               	movlw	0
  2526  0EFF  00BB               	movwf	_reset_flag+1
  2527  0F00                     l115:	
  2528  0F00  0008               	return
  2529  0F01                     __end_of_opearation_call:	
  2530                           
  2531                           	psect	text5
  2532  0F01                     __ptext5:	
  2533 ;; *************** function _time_display *****************
  2534 ;; Defined at:
  2535 ;;		line 322 in file "main.c"
  2536 ;; Parameters:    Size  Location     Type
  2537 ;;		None
  2538 ;; Auto vars:     Size  Location     Type
  2539 ;;		None
  2540 ;; Return value:  Size  Location     Type
  2541 ;;                  1    wreg      void 
  2542 ;; Registers used:
  2543 ;;		wreg, fsr0l, fsr0h, status,2, status,0, btemp+1, pclath, cstack
  2544 ;; Tracked objects:
  2545 ;;		On entry : 0/0
  2546 ;;		On exit  : 0/0
  2547 ;;		Unchanged: 0/0
  2548 ;; Data sizes:     COMMON   BANK0   BANK1   BANK3   BANK2
  2549 ;;      Params:         0       0       0       0       0
  2550 ;;      Locals:         0       0       0       0       0
  2551 ;;      Temps:          0       3       0       0       0
  2552 ;;      Totals:         0       3       0       0       0
  2553 ;;Total ram usage:        3 bytes
  2554 ;; Hardware stack levels used:    1
  2555 ;; Hardware stack levels required when called:    4
  2556 ;; This function calls:
  2557 ;;		___awdiv
  2558 ;;		___awmod
  2559 ;;		_clcd_print
  2560 ;;		_clcd_putch
  2561 ;;		_clear_display
  2562 ;;		_door_status_check
  2563 ;; This function is called by:
  2564 ;;		_opearation_call
  2565 ;; This function uses a non-reentrant model
  2566 ;;
  2567                           
  2568                           
  2569                           ;psect for function _time_display
  2570  0F01                     _time_display:	
  2571  0F01                     l2688:	
  2572                           ;incstack = 0
  2573                           ; Regs used in _time_display: [wreg-fsr0h+status,2+status,0+btemp+1+pclath+cstack]
  2574                           
  2575                           
  2576                           ;main.c: 324:     clcd_putch(sec % 10 + '0',(0x80 + 13));
  2577  0F01  120A  158A  24A8  120A  158A  	fcall	_door_status_check
  2578                           
  2579                           ;main.c: 325: 
  2580  0F06  300E               	movlw	low (STR_15| (0+32768))
  2581  0F07  1283               	bcf	3,5	;RP0=0, select bank0
  2582  0F08  1303               	bcf	3,6	;RP1=0, select bank0
  2583  0F09  00C4               	movwf	clcd_print@str
  2584  0F0A  3086               	movlw	high (STR_15| (0+32768))
  2585  0F0B  00C5               	movwf	clcd_print@str+1
  2586  0F0C  3080               	movlw	128
  2587  0F0D  00D1               	movwf	??_time_display
  2588  0F0E  0851               	movf	??_time_display,w
  2589  0F0F  00C6               	movwf	clcd_print@addr
  2590  0F10  120A  158A  2402  120A  158A  	fcall	_clcd_print
  2591  0F15                     l2690:	
  2592                           
  2593                           ;main.c: 326:     clcd_print(" 4.START/RESUME ",(0xC0 + 0));
  2594  0F15  300A               	movlw	10
  2595  0F16  00F3               	movwf	___awdiv@divisor
  2596  0F17  3000               	movlw	0
  2597  0F18  00F4               	movwf	___awdiv@divisor+1
  2598  0F19  1283               	bcf	3,5	;RP0=0, select bank0
  2599  0F1A  1303               	bcf	3,6	;RP1=0, select bank0
  2600  0F1B  0839               	movf	_min+1,w
  2601  0F1C  00F6               	movwf	___awdiv@dividend+1
  2602  0F1D  0838               	movf	_min,w
  2603  0F1E  00F5               	movwf	___awdiv@dividend
  2604  0F1F  120A  158A  25FC  120A  158A  	fcall	___awdiv
  2605  0F24  0873               	movf	?___awdiv,w
  2606  0F25  3E30               	addlw	48
  2607  0F26  1283               	bcf	3,5	;RP0=0, select bank0
  2608  0F27  1303               	bcf	3,6	;RP1=0, select bank0
  2609  0F28  00D1               	movwf	??_time_display
  2610  0F29  0851               	movf	??_time_display,w
  2611  0F2A  00BE               	movwf	_min_array
  2612  0F2B                     l2692:	
  2613                           
  2614                           ;main.c: 327:     clcd_print(" 5.PAUSE        ",(0x90 + 0));
  2615  0F2B  300A               	movlw	10
  2616  0F2C  00C8               	movwf	___awmod@divisor
  2617  0F2D  3000               	movlw	0
  2618  0F2E  00C9               	movwf	___awmod@divisor+1
  2619  0F2F  0839               	movf	_min+1,w
  2620  0F30  00CB               	movwf	___awmod@dividend+1
  2621  0F31  0838               	movf	_min,w
  2622  0F32  00CA               	movwf	___awmod@dividend
  2623  0F33  120A  158A  253E  120A  158A  	fcall	___awmod
  2624  0F38  1283               	bcf	3,5	;RP0=0, select bank0
  2625  0F39  1303               	bcf	3,6	;RP1=0, select bank0
  2626  0F3A  0848               	movf	?___awmod,w
  2627  0F3B  3E30               	addlw	48
  2628  0F3C  00D1               	movwf	??_time_display
  2629  0F3D  0851               	movf	??_time_display,w
  2630  0F3E  00BF               	movwf	_min_array+1
  2631  0F3F                     l2694:	
  2632                           
  2633                           ;main.c: 328:     clcd_print(" 6.STOP         ",(0xD0 + 0));
  2634  0F3F  01C0               	clrf	_min_array+2
  2635  0F40                     l2696:	
  2636                           
  2637                           ;main.c: 329: 
  2638  0F40  303E               	movlw	(low (_min_array| 0))& (0+255)
  2639  0F41  00C4               	movwf	clcd_print@str
  2640  0F42  3000               	movlw	0
  2641  0F43  00C5               	movwf	clcd_print@str+1
  2642  0F44  3089               	movlw	137
  2643  0F45  00D1               	movwf	??_time_display
  2644  0F46  0851               	movf	??_time_display,w
  2645  0F47  00C6               	movwf	clcd_print@addr
  2646  0F48  120A  158A  2402  120A  158A  	fcall	_clcd_print
  2647  0F4D                     l2698:	
  2648                           
  2649                           ;main.c: 330:     if((min == 0) && (sec == 0))
  2650  0F4D  308B               	movlw	139
  2651  0F4E  1283               	bcf	3,5	;RP0=0, select bank0
  2652  0F4F  1303               	bcf	3,6	;RP1=0, select bank0
  2653  0F50  00D1               	movwf	??_time_display
  2654  0F51  0851               	movf	??_time_display,w
  2655  0F52  00CF               	movwf	clcd_putch@addr
  2656  0F53  303A               	movlw	58
  2657  0F54  120A  118A  27E7  120A  158A  	fcall	_clcd_putch
  2658  0F59                     l2700:	
  2659                           
  2660                           ;main.c: 333:         RC2 = 0;
  2661  0F59  308C               	movlw	140
  2662  0F5A  1283               	bcf	3,5	;RP0=0, select bank0
  2663  0F5B  1303               	bcf	3,6	;RP1=0, select bank0
  2664  0F5C  00D1               	movwf	??_time_display
  2665  0F5D  0851               	movf	??_time_display,w
  2666  0F5E  00CF               	movwf	clcd_putch@addr
  2667  0F5F  300A               	movlw	10
  2668  0F60  00F3               	movwf	___awdiv@divisor
  2669  0F61  3000               	movlw	0
  2670  0F62  00F4               	movwf	___awdiv@divisor+1
  2671  0F63  0837               	movf	_sec+1,w
  2672  0F64  00F6               	movwf	___awdiv@dividend+1
  2673  0F65  0836               	movf	_sec,w
  2674  0F66  00F5               	movwf	___awdiv@dividend
  2675  0F67  120A  158A  25FC  120A  158A  	fcall	___awdiv
  2676  0F6C  0873               	movf	?___awdiv,w
  2677  0F6D  3E30               	addlw	48
  2678  0F6E  120A  118A  27E7  120A  158A  	fcall	_clcd_putch
  2679  0F73                     l2702:	
  2680                           
  2681                           ;main.c: 334:         clear_display();
  2682  0F73  308D               	movlw	141
  2683  0F74  1283               	bcf	3,5	;RP0=0, select bank0
  2684  0F75  1303               	bcf	3,6	;RP1=0, select bank0
  2685  0F76  00D1               	movwf	??_time_display
  2686  0F77  0851               	movf	??_time_display,w
  2687  0F78  00CF               	movwf	clcd_putch@addr
  2688  0F79  300A               	movlw	10
  2689  0F7A  00C8               	movwf	___awmod@divisor
  2690  0F7B  3000               	movlw	0
  2691  0F7C  00C9               	movwf	___awmod@divisor+1
  2692  0F7D  0837               	movf	_sec+1,w
  2693  0F7E  00CB               	movwf	___awmod@dividend+1
  2694  0F7F  0836               	movf	_sec,w
  2695  0F80  00CA               	movwf	___awmod@dividend
  2696  0F81  120A  158A  253E  120A  158A  	fcall	___awmod
  2697  0F86  1283               	bcf	3,5	;RP0=0, select bank0
  2698  0F87  1303               	bcf	3,6	;RP1=0, select bank0
  2699  0F88  0848               	movf	?___awmod,w
  2700  0F89  3E30               	addlw	48
  2701  0F8A  120A  118A  27E7  120A  158A  	fcall	_clcd_putch
  2702  0F8F                     l2704:	
  2703                           
  2704                           ;main.c: 336:         RC1 = 1;
  2705  0F8F  3022               	movlw	low (STR_16| (0+32768))
  2706  0F90  1283               	bcf	3,5	;RP0=0, select bank0
  2707  0F91  1303               	bcf	3,6	;RP1=0, select bank0
  2708  0F92  00C4               	movwf	clcd_print@str
  2709  0F93  3085               	movlw	high (STR_16| (0+32768))
  2710  0F94  00C5               	movwf	clcd_print@str+1
  2711  0F95  30C0               	movlw	192
  2712  0F96  00D1               	movwf	??_time_display
  2713  0F97  0851               	movf	??_time_display,w
  2714  0F98  00C6               	movwf	clcd_print@addr
  2715  0F99  120A  158A  2402  120A  158A  	fcall	_clcd_print
  2716  0F9E                     l2706:	
  2717                           
  2718                           ;main.c: 337:         _delay((unsigned long)((3000)*(20000000/4000.0)));
  2719  0F9E  3011               	movlw	low (STR_17| (0+32768))
  2720  0F9F  1283               	bcf	3,5	;RP0=0, select bank0
  2721  0FA0  1303               	bcf	3,6	;RP1=0, select bank0
  2722  0FA1  00C4               	movwf	clcd_print@str
  2723  0FA2  3085               	movlw	high (STR_17| (0+32768))
  2724  0FA3  00C5               	movwf	clcd_print@str+1
  2725  0FA4  3090               	movlw	144
  2726  0FA5  00D1               	movwf	??_time_display
  2727  0FA6  0851               	movf	??_time_display,w
  2728  0FA7  00C6               	movwf	clcd_print@addr
  2729  0FA8  120A  158A  2402  120A  158A  	fcall	_clcd_print
  2730  0FAD                     l2708:	
  2731                           
  2732                           ;main.c: 338:         RC1 = 0;
  2733  0FAD  3000               	movlw	low (STR_18| (0+32768))
  2734  0FAE  1283               	bcf	3,5	;RP0=0, select bank0
  2735  0FAF  1303               	bcf	3,6	;RP1=0, select bank0
  2736  0FB0  00C4               	movwf	clcd_print@str
  2737  0FB1  3085               	movlw	high (STR_18| (0+32768))
  2738  0FB2  00C5               	movwf	clcd_print@str+1
  2739  0FB3  30D0               	movlw	208
  2740  0FB4  00D1               	movwf	??_time_display
  2741  0FB5  0851               	movf	??_time_display,w
  2742  0FB6  00C6               	movwf	clcd_print@addr
  2743  0FB7  120A  158A  2402  120A  158A  	fcall	_clcd_print
  2744  0FBC                     l2710:	
  2745                           
  2746                           ;main.c: 340:         clear_display();
  2747  0FBC  1283               	bcf	3,5	;RP0=0, select bank0
  2748  0FBD  1303               	bcf	3,6	;RP1=0, select bank0
  2749  0FBE  0838               	movf	_min,w
  2750  0FBF  0439               	iorwf	_min+1,w
  2751  0FC0  1D03               	btfss	3,2
  2752  0FC1  2FC3               	goto	u2371
  2753  0FC2  2FC4               	goto	u2370
  2754  0FC3                     u2371:	
  2755  0FC3  2FFF               	goto	l171
  2756  0FC4                     u2370:	
  2757  0FC4                     l2712:	
  2758  0FC4  0836               	movf	_sec,w
  2759  0FC5  0437               	iorwf	_sec+1,w
  2760  0FC6  1D03               	btfss	3,2
  2761  0FC7  2FC9               	goto	u2381
  2762  0FC8  2FCA               	goto	u2380
  2763  0FC9                     u2381:	
  2764  0FC9  2FFF               	goto	l171
  2765  0FCA                     u2380:	
  2766  0FCA                     l2714:	
  2767                           
  2768                           ;main.c: 341:         operation_mode = 0x01;;main.c: 342: 
  2769  0FCA  1112               	bcf	18,2	;volatile
  2770                           
  2771                           ;main.c: 343: 
  2772  0FCB  1107               	bcf	7,2	;volatile
  2773  0FCC                     l2716:	
  2774                           
  2775                           ;main.c: 344:     }
  2776  0FCC  120A  158A  235C  120A  158A  	fcall	_clear_display
  2777  0FD1                     l2718:	
  2778                           
  2779                           ;main.c: 345: 
  2780  0FD1  3077               	movlw	low (STR_19| (0+32768))
  2781  0FD2  1283               	bcf	3,5	;RP0=0, select bank0
  2782  0FD3  1303               	bcf	3,6	;RP1=0, select bank0
  2783  0FD4  00C4               	movwf	clcd_print@str
  2784  0FD5  3085               	movlw	high (STR_19| (0+32768))
  2785  0FD6  00C5               	movwf	clcd_print@str+1
  2786  0FD7  30C0               	movlw	192
  2787  0FD8  00D1               	movwf	??_time_display
  2788  0FD9  0851               	movf	??_time_display,w
  2789  0FDA  00C6               	movwf	clcd_print@addr
  2790  0FDB  120A  158A  2402  120A  158A  	fcall	_clcd_print
  2791  0FE0                     l2720:	
  2792                           
  2793                           ;main.c: 346: }
  2794  0FE0  1283               	bcf	3,5	;RP0=0, select bank0
  2795  0FE1  1303               	bcf	3,6	;RP1=0, select bank0
  2796  0FE2  1487               	bsf	7,1	;volatile
  2797  0FE3                     l2722:	
  2798                           
  2799                           ;main.c: 347: 
  2800  0FE3  304D               	movlw	77
  2801  0FE4  1283               	bcf	3,5	;RP0=0, select bank0
  2802  0FE5  1303               	bcf	3,6	;RP1=0, select bank0
  2803  0FE6  00D3               	movwf	??_time_display+2
  2804  0FE7  3019               	movlw	25
  2805  0FE8  00D2               	movwf	??_time_display+1
  2806  0FE9  304F               	movlw	79
  2807  0FEA  00D1               	movwf	??_time_display
  2808  0FEB                     u2957:	
  2809  0FEB  0BD1               	decfsz	??_time_display,f
  2810  0FEC  2FEB               	goto	u2957
  2811  0FED  0BD2               	decfsz	??_time_display+1,f
  2812  0FEE  2FEB               	goto	u2957
  2813  0FEF  0BD3               	decfsz	??_time_display+2,f
  2814  0FF0  2FEB               	goto	u2957
  2815  0FF1                     l2724:	
  2816                           
  2817                           ;main.c: 348: char set_temp(unsigned char key)
  2818  0FF1  1283               	bcf	3,5	;RP0=0, select bank0
  2819  0FF2  1303               	bcf	3,6	;RP1=0, select bank0
  2820  0FF3  1087               	bcf	7,1	;volatile
  2821  0FF4                     l2726:	
  2822                           
  2823                           ;main.c: 350:     static int blink, wait, key_count, temp;
  2824  0FF4  120A  158A  235C  120A  158A  	fcall	_clear_display
  2825  0FF9                     l2728:	
  2826                           
  2827                           ;main.c: 351:     if(reset_flag == 0X14)
  2828  0FF9  3001               	movlw	1
  2829  0FFA  1283               	bcf	3,5	;RP0=0, select bank0
  2830  0FFB  1303               	bcf	3,6	;RP1=0, select bank0
  2831  0FFC  00BC               	movwf	_operation_mode
  2832  0FFD  3000               	movlw	0
  2833  0FFE  00BD               	movwf	_operation_mode+1
  2834  0FFF                     l171:	
  2835  0FFF  0008               	return
  2836  1000                     __end_of_time_display:	
  2837                           
  2838                           	psect	text6
  2839  026A                     __ptext6:	
  2840 ;; *************** function _set_time *****************
  2841 ;; Defined at:
  2842 ;;		line 207 in file "main.c"
  2843 ;; Parameters:    Size  Location     Type
  2844 ;;  key             1    wreg     unsigned char 
  2845 ;; Auto vars:     Size  Location     Type
  2846 ;;  key             1   13[BANK0 ] unsigned char 
  2847 ;; Return value:  Size  Location     Type
  2848 ;;                  1    wreg      void 
  2849 ;; Registers used:
  2850 ;;		wreg, fsr0l, fsr0h, status,2, status,0, btemp+1, pclath, cstack
  2851 ;; Tracked objects:
  2852 ;;		On entry : 0/0
  2853 ;;		On exit  : 0/0
  2854 ;;		Unchanged: 0/0
  2855 ;; Data sizes:     COMMON   BANK0   BANK1   BANK3   BANK2
  2856 ;;      Params:         0       0       0       0       0
  2857 ;;      Locals:         0       1       0       0       0
  2858 ;;      Temps:          0       2       0       0       0
  2859 ;;      Totals:         0       3       0       0       0
  2860 ;;Total ram usage:        3 bytes
  2861 ;; Hardware stack levels used:    1
  2862 ;; Hardware stack levels required when called:    3
  2863 ;; This function calls:
  2864 ;;		___awdiv
  2865 ;;		___awmod
  2866 ;;		___wmul
  2867 ;;		_clcd_print
  2868 ;;		_clear_display
  2869 ;; This function is called by:
  2870 ;;		_opearation_call
  2871 ;; This function uses a non-reentrant model
  2872 ;;
  2873                           
  2874                           
  2875                           ;psect for function _set_time
  2876  026A                     _set_time:	
  2877                           
  2878                           ;incstack = 0
  2879                           ; Regs used in _set_time: [wreg-fsr0h+status,2+status,0+btemp+1+pclath+cstack]
  2880                           ;set_time@key stored from wreg
  2881  026A  1283               	bcf	3,5	;RP0=0, select bank0
  2882  026B  1303               	bcf	3,6	;RP1=0, select bank0
  2883  026C  00D1               	movwf	set_time@key
  2884  026D                     l2730:	
  2885                           
  2886                           ;main.c: 207:         blink = 0;;main.c: 208:         blink_pos = 0;;main.c: 209:       
      +                            clcd_print("SET TIME (MM:SS)", (0x80 + 0));;main.c: 210:         clcd_print("TIME- 00:
      +                          00", (0xC0 + 0));
  2887  026D  083B               	movf	_reset_flag+1,w
  2888  026E  3A80               	xorlw	128
  2889  026F  00FF               	movwf	btemp+1
  2890  0270  3080               	movlw	128
  2891  0271  027F               	subwf	btemp+1,w
  2892  0272  1D03               	skipz
  2893  0273  2A76               	goto	u2395
  2894  0274  3011               	movlw	17
  2895  0275  023A               	subwf	_reset_flag,w
  2896  0276                     u2395:	
  2897  0276  1C03               	skipc
  2898  0277  2A79               	goto	u2391
  2899  0278  2A7A               	goto	u2390
  2900  0279                     u2391:	
  2901  0279  2AB5               	goto	l2750
  2902  027A                     u2390:	
  2903  027A                     l2732:	
  2904                           
  2905                           ;main.c: 211:         clcd_print("*:CLEAR  #:ENTER", (0xD0 + 0));;main.c: 213:     if(ke
      +                          y != 0xFF && key != '*' && key != '#')
  2906  027A  30FF               	movlw	255
  2907  027B  1283               	bcf	3,5	;RP0=0, select bank0
  2908  027C  1303               	bcf	3,6	;RP1=0, select bank0
  2909  027D  00CF               	movwf	??_set_time
  2910  027E  084F               	movf	??_set_time,w
  2911  027F  00D1               	movwf	set_time@key
  2912  0280                     l2734:	
  2913                           
  2914                           ;main.c: 214:     {
  2915  0280  01F8               	clrf	set_time@key_count
  2916  0281  01F9               	clrf	set_time@key_count+1
  2917  0282                     l2736:	
  2918                           
  2919                           ;main.c: 215: 
  2920  0282  01B6               	clrf	_sec
  2921  0283  01B7               	clrf	_sec+1
  2922  0284                     l2738:	
  2923                           
  2924                           ;main.c: 216:         key_count++;
  2925  0284  01B8               	clrf	_min
  2926  0285  01B9               	clrf	_min+1
  2927  0286                     l2740:	
  2928                           
  2929                           ;main.c: 217:         if(key_count <= 2)
  2930  0286  01AE               	clrf	set_time@blink
  2931  0287  01AF               	clrf	set_time@blink+1
  2932  0288                     l2742:	
  2933                           
  2934                           ;main.c: 218:         {
  2935  0288  01AA               	clrf	set_time@blink_pos
  2936  0289  01AB               	clrf	set_time@blink_pos+1
  2937  028A                     l2744:	
  2938                           
  2939                           ;main.c: 219:         sec = sec * 10 + key;
  2940  028A  3044               	movlw	low (STR_8| (0+32768))
  2941  028B  00C4               	movwf	clcd_print@str
  2942  028C  3085               	movlw	high (STR_8| (0+32768))
  2943  028D  00C5               	movwf	clcd_print@str+1
  2944  028E  3080               	movlw	128
  2945  028F  00CF               	movwf	??_set_time
  2946  0290  084F               	movf	??_set_time,w
  2947  0291  00C6               	movwf	clcd_print@addr
  2948  0292  120A  158A  2402  120A  118A  	fcall	_clcd_print
  2949  0297                     l2746:	
  2950                           
  2951                           ;main.c: 220: 
  2952  0297  30F7               	movlw	low (STR_9| (0+32768))
  2953  0298  1283               	bcf	3,5	;RP0=0, select bank0
  2954  0299  1303               	bcf	3,6	;RP1=0, select bank0
  2955  029A  00C4               	movwf	clcd_print@str
  2956  029B  3085               	movlw	high (STR_9| (0+32768))
  2957  029C  00C5               	movwf	clcd_print@str+1
  2958  029D  30C0               	movlw	192
  2959  029E  00CF               	movwf	??_set_time
  2960  029F  084F               	movf	??_set_time,w
  2961  02A0  00C6               	movwf	clcd_print@addr
  2962  02A1  120A  158A  2402  120A  118A  	fcall	_clcd_print
  2963  02A6                     l2748:	
  2964                           
  2965                           ;main.c: 221: 
  2966  02A6  3066               	movlw	low (STR_10| (0+32768))
  2967  02A7  1283               	bcf	3,5	;RP0=0, select bank0
  2968  02A8  1303               	bcf	3,6	;RP1=0, select bank0
  2969  02A9  00C4               	movwf	clcd_print@str
  2970  02AA  3085               	movlw	high (STR_10| (0+32768))
  2971  02AB  00C5               	movwf	clcd_print@str+1
  2972  02AC  30D0               	movlw	208
  2973  02AD  00CF               	movwf	??_set_time
  2974  02AE  084F               	movf	??_set_time,w
  2975  02AF  00C6               	movwf	clcd_print@addr
  2976  02B0  120A  158A  2402  120A  118A  	fcall	_clcd_print
  2977  02B5                     l2750:	
  2978                           
  2979                           ;main.c: 223:         else if (key_count > 2 && key_count < 5)
  2980  02B5  1283               	bcf	3,5	;RP0=0, select bank0
  2981  02B6  1303               	bcf	3,6	;RP1=0, select bank0
  2982  02B7  0A51               	incf	set_time@key,w
  2983  02B8  1903               	btfsc	3,2
  2984  02B9  2ABB               	goto	u2401
  2985  02BA  2ABC               	goto	u2400
  2986  02BB                     u2401:	
  2987  02BB  2B5B               	goto	l2778
  2988  02BC                     u2400:	
  2989  02BC                     l2752:	
  2990  02BC  302A               	movlw	42
  2991  02BD  0651               	xorwf	set_time@key,w
  2992  02BE  1903               	btfsc	3,2
  2993  02BF  2AC1               	goto	u2411
  2994  02C0  2AC2               	goto	u2410
  2995  02C1                     u2411:	
  2996  02C1  2B5B               	goto	l2778
  2997  02C2                     u2410:	
  2998  02C2                     l2754:	
  2999  02C2  3023               	movlw	35
  3000  02C3  0651               	xorwf	set_time@key,w
  3001  02C4  1903               	btfsc	3,2
  3002  02C5  2AC7               	goto	u2421
  3003  02C6  2AC8               	goto	u2420
  3004  02C7                     u2421:	
  3005  02C7  2B5B               	goto	l2778
  3006  02C8                     u2420:	
  3007  02C8                     l2756:	
  3008                           
  3009                           ;main.c: 224:         {;main.c: 226: 
  3010  02C8  3001               	movlw	1
  3011  02C9  07F8               	addwf	set_time@key_count,f
  3012  02CA  1803               	skipnc
  3013  02CB  0AF9               	incf	set_time@key_count+1,f
  3014  02CC  3000               	movlw	0
  3015  02CD  07F9               	addwf	set_time@key_count+1,f
  3016  02CE                     l2758:	
  3017                           
  3018                           ;main.c: 227:         }
  3019  02CE  0879               	movf	set_time@key_count+1,w
  3020  02CF  3A80               	xorlw	128
  3021  02D0  00FF               	movwf	btemp+1
  3022  02D1  3080               	movlw	128
  3023  02D2  027F               	subwf	btemp+1,w
  3024  02D3  1D03               	skipz
  3025  02D4  2AD7               	goto	u2435
  3026  02D5  3003               	movlw	3
  3027  02D6  0278               	subwf	set_time@key_count,w
  3028  02D7                     u2435:	
  3029  02D7  1803               	skipnc
  3030  02D8  2ADA               	goto	u2431
  3031  02D9  2ADB               	goto	u2430
  3032  02DA                     u2431:	
  3033  02DA  2AF5               	goto	l2762
  3034  02DB                     u2430:	
  3035  02DB                     l2760:	
  3036                           
  3037                           ;main.c: 228:         if(key_count < 2);main.c: 229:         {
  3038  02DB  1283               	bcf	3,5	;RP0=0, select bank0
  3039  02DC  1303               	bcf	3,6	;RP1=0, select bank0
  3040  02DD  0837               	movf	_sec+1,w
  3041  02DE  00F4               	movwf	___wmul@multiplier+1
  3042  02DF  0836               	movf	_sec,w
  3043  02E0  00F3               	movwf	___wmul@multiplier
  3044  02E1  300A               	movlw	10
  3045  02E2  00F5               	movwf	___wmul@multiplicand
  3046  02E3  3000               	movlw	0
  3047  02E4  00F6               	movwf	___wmul@multiplicand+1
  3048  02E5  120A  158A  23D7  120A  118A  	fcall	___wmul
  3049  02EA  1283               	bcf	3,5	;RP0=0, select bank0
  3050  02EB  1303               	bcf	3,6	;RP1=0, select bank0
  3051  02EC  0851               	movf	set_time@key,w
  3052  02ED  0773               	addwf	?___wmul,w
  3053  02EE  00B6               	movwf	_sec
  3054  02EF  3000               	movlw	0
  3055  02F0  1803               	skipnc
  3056  02F1  3001               	movlw	1
  3057  02F2  0774               	addwf	?___wmul+1,w
  3058  02F3  00B7               	movwf	_sec+1
  3059                           
  3060                           ;main.c: 232:         else if(key_count > 2 && key_count < 5)
  3061  02F4  2B28               	goto	l2768
  3062  02F5                     l2762:	
  3063  02F5  0879               	movf	set_time@key_count+1,w
  3064  02F6  3A80               	xorlw	128
  3065  02F7  00FF               	movwf	btemp+1
  3066  02F8  3080               	movlw	128
  3067  02F9  027F               	subwf	btemp+1,w
  3068  02FA  1D03               	skipz
  3069  02FB  2AFE               	goto	u2445
  3070  02FC  3003               	movlw	3
  3071  02FD  0278               	subwf	set_time@key_count,w
  3072  02FE                     u2445:	
  3073  02FE  1C03               	skipc
  3074  02FF  2B01               	goto	u2441
  3075  0300  2B02               	goto	u2440
  3076  0301                     u2441:	
  3077  0301  2B28               	goto	l2768
  3078  0302                     u2440:	
  3079  0302                     l2764:	
  3080  0302  0879               	movf	set_time@key_count+1,w
  3081  0303  3A80               	xorlw	128
  3082  0304  00FF               	movwf	btemp+1
  3083  0305  3080               	movlw	128
  3084  0306  027F               	subwf	btemp+1,w
  3085  0307  1D03               	skipz
  3086  0308  2B0B               	goto	u2455
  3087  0309  3005               	movlw	5
  3088  030A  0278               	subwf	set_time@key_count,w
  3089  030B                     u2455:	
  3090  030B  1803               	skipnc
  3091  030C  2B0E               	goto	u2451
  3092  030D  2B0F               	goto	u2450
  3093  030E                     u2451:	
  3094  030E  2B28               	goto	l2768
  3095  030F                     u2450:	
  3096  030F                     l2766:	
  3097                           
  3098                           ;main.c: 234:              blink_pos = 1;;main.c: 235:         }
  3099  030F  1283               	bcf	3,5	;RP0=0, select bank0
  3100  0310  1303               	bcf	3,6	;RP1=0, select bank0
  3101  0311  0839               	movf	_min+1,w
  3102  0312  00F4               	movwf	___wmul@multiplier+1
  3103  0313  0838               	movf	_min,w
  3104  0314  00F3               	movwf	___wmul@multiplier
  3105  0315  300A               	movlw	10
  3106  0316  00F5               	movwf	___wmul@multiplicand
  3107  0317  3000               	movlw	0
  3108  0318  00F6               	movwf	___wmul@multiplicand+1
  3109  0319  120A  158A  23D7  120A  118A  	fcall	___wmul
  3110  031E  1283               	bcf	3,5	;RP0=0, select bank0
  3111  031F  1303               	bcf	3,6	;RP1=0, select bank0
  3112  0320  0851               	movf	set_time@key,w
  3113  0321  0773               	addwf	?___wmul,w
  3114  0322  00B8               	movwf	_min
  3115  0323  3000               	movlw	0
  3116  0324  1803               	skipnc
  3117  0325  3001               	movlw	1
  3118  0326  0774               	addwf	?___wmul+1,w
  3119  0327  00B9               	movwf	_min+1
  3120  0328                     l2768:	
  3121                           
  3122                           ;main.c: 238:     else if(key == '*')
  3123  0328  0879               	movf	set_time@key_count+1,w
  3124  0329  3A80               	xorlw	128
  3125  032A  00FF               	movwf	btemp+1
  3126  032B  3080               	movlw	128
  3127  032C  027F               	subwf	btemp+1,w
  3128  032D  1D03               	skipz
  3129  032E  2B31               	goto	u2465
  3130  032F  3002               	movlw	2
  3131  0330  0278               	subwf	set_time@key_count,w
  3132  0331                     u2465:	
  3133  0331  1803               	skipnc
  3134  0332  2B34               	goto	u2461
  3135  0333  2B35               	goto	u2460
  3136  0334                     u2461:	
  3137  0334  2B3A               	goto	l2772
  3138  0335                     u2460:	
  3139  0335                     l2770:	
  3140                           
  3141                           ;main.c: 239:     {;main.c: 240:         if(key_count <=2)
  3142  0335  1283               	bcf	3,5	;RP0=0, select bank0
  3143  0336  1303               	bcf	3,6	;RP1=0, select bank0
  3144  0337  01AA               	clrf	set_time@blink_pos
  3145  0338  01AB               	clrf	set_time@blink_pos+1
  3146                           
  3147                           ;main.c: 241:         {
  3148  0339  2BAD               	goto	l2804
  3149  033A                     l2772:	
  3150  033A  0879               	movf	set_time@key_count+1,w
  3151  033B  3A80               	xorlw	128
  3152  033C  00FF               	movwf	btemp+1
  3153  033D  3080               	movlw	128
  3154  033E  027F               	subwf	btemp+1,w
  3155  033F  1D03               	skipz
  3156  0340  2B43               	goto	u2475
  3157  0341  3003               	movlw	3
  3158  0342  0278               	subwf	set_time@key_count,w
  3159  0343                     u2475:	
  3160  0343  1C03               	skipc
  3161  0344  2B46               	goto	u2471
  3162  0345  2B47               	goto	u2470
  3163  0346                     u2471:	
  3164  0346  2BAD               	goto	l2804
  3165  0347                     u2470:	
  3166  0347                     l2774:	
  3167  0347  0879               	movf	set_time@key_count+1,w
  3168  0348  3A80               	xorlw	128
  3169  0349  00FF               	movwf	btemp+1
  3170  034A  3080               	movlw	128
  3171  034B  027F               	subwf	btemp+1,w
  3172  034C  1D03               	skipz
  3173  034D  2B50               	goto	u2485
  3174  034E  3005               	movlw	5
  3175  034F  0278               	subwf	set_time@key_count,w
  3176  0350                     u2485:	
  3177  0350  1803               	skipnc
  3178  0351  2B53               	goto	u2481
  3179  0352  2B54               	goto	u2480
  3180  0353                     u2481:	
  3181  0353  2BAD               	goto	l2804
  3182  0354                     u2480:	
  3183  0354                     l2776:	
  3184                           
  3185                           ;main.c: 243:             key_count = 0;;main.c: 244:             blink_pos = 0;
  3186  0354  3001               	movlw	1
  3187  0355  1283               	bcf	3,5	;RP0=0, select bank0
  3188  0356  1303               	bcf	3,6	;RP1=0, select bank0
  3189  0357  00AA               	movwf	set_time@blink_pos
  3190  0358  3000               	movlw	0
  3191  0359  00AB               	movwf	set_time@blink_pos+1
  3192  035A  2BAD               	goto	l2804
  3193  035B                     l2778:	
  3194  035B  302A               	movlw	42
  3195  035C  0651               	xorwf	set_time@key,w
  3196  035D  1D03               	btfss	3,2
  3197  035E  2B60               	goto	u2491
  3198  035F  2B61               	goto	u2490
  3199  0360                     u2491:	
  3200  0360  2B9A               	goto	l2794
  3201  0361                     u2490:	
  3202  0361                     l2780:	
  3203                           
  3204                           ;main.c: 249:             key_count = 2;;main.c: 250:             blink_pos = 1;
  3205  0361  0879               	movf	set_time@key_count+1,w
  3206  0362  3A80               	xorlw	128
  3207  0363  00FF               	movwf	btemp+1
  3208  0364  3080               	movlw	128
  3209  0365  027F               	subwf	btemp+1,w
  3210  0366  1D03               	skipz
  3211  0367  2B6A               	goto	u2505
  3212  0368  3003               	movlw	3
  3213  0369  0278               	subwf	set_time@key_count,w
  3214  036A                     u2505:	
  3215  036A  1803               	skipnc
  3216  036B  2B6D               	goto	u2501
  3217  036C  2B6E               	goto	u2500
  3218  036D                     u2501:	
  3219  036D  2B77               	goto	l2784
  3220  036E                     u2500:	
  3221  036E                     l2782:	
  3222                           
  3223                           ;main.c: 251:         };main.c: 252:     }
  3224  036E  1283               	bcf	3,5	;RP0=0, select bank0
  3225  036F  1303               	bcf	3,6	;RP1=0, select bank0
  3226  0370  01B6               	clrf	_sec
  3227  0371  01B7               	clrf	_sec+1
  3228                           
  3229                           ;main.c: 253:     else if (key == '#')
  3230  0372  01F8               	clrf	set_time@key_count
  3231  0373  01F9               	clrf	set_time@key_count+1
  3232                           
  3233                           ;main.c: 254:     {
  3234  0374  01AA               	clrf	set_time@blink_pos
  3235  0375  01AB               	clrf	set_time@blink_pos+1
  3236                           
  3237                           ;main.c: 255:        clear_display();
  3238  0376  2BAD               	goto	l2804
  3239  0377                     l2784:	
  3240  0377  0879               	movf	set_time@key_count+1,w
  3241  0378  3A80               	xorlw	128
  3242  0379  00FF               	movwf	btemp+1
  3243  037A  3080               	movlw	128
  3244  037B  027F               	subwf	btemp+1,w
  3245  037C  1D03               	skipz
  3246  037D  2B80               	goto	u2515
  3247  037E  3003               	movlw	3
  3248  037F  0278               	subwf	set_time@key_count,w
  3249  0380                     u2515:	
  3250  0380  1C03               	skipc
  3251  0381  2B83               	goto	u2511
  3252  0382  2B84               	goto	u2510
  3253  0383                     u2511:	
  3254  0383  2BAD               	goto	l2804
  3255  0384                     u2510:	
  3256  0384                     l2786:	
  3257  0384  0879               	movf	set_time@key_count+1,w
  3258  0385  3A80               	xorlw	128
  3259  0386  00FF               	movwf	btemp+1
  3260  0387  3080               	movlw	128
  3261  0388  027F               	subwf	btemp+1,w
  3262  0389  1D03               	skipz
  3263  038A  2B8D               	goto	u2525
  3264  038B  3005               	movlw	5
  3265  038C  0278               	subwf	set_time@key_count,w
  3266  038D                     u2525:	
  3267  038D  1803               	skipnc
  3268  038E  2B90               	goto	u2521
  3269  038F  2B91               	goto	u2520
  3270  0390                     u2521:	
  3271  0390  2BAD               	goto	l2804
  3272  0391                     u2520:	
  3273  0391                     l2788:	
  3274                           
  3275                           ;main.c: 257:        RC2 = 1;;main.c: 258:        operation_mode = 0x06;
  3276  0391  1283               	bcf	3,5	;RP0=0, select bank0
  3277  0392  1303               	bcf	3,6	;RP1=0, select bank0
  3278  0393  01B8               	clrf	_min
  3279  0394  01B9               	clrf	_min+1
  3280  0395                     l2790:	
  3281                           
  3282                           ;main.c: 259:     }
  3283  0395  3002               	movlw	2
  3284  0396  00F8               	movwf	set_time@key_count
  3285  0397  3000               	movlw	0
  3286  0398  00F9               	movwf	set_time@key_count+1
  3287  0399  2B54               	goto	l2776
  3288  039A                     l2794:	
  3289  039A  3023               	movlw	35
  3290  039B  0651               	xorwf	set_time@key,w
  3291  039C  1D03               	btfss	3,2
  3292  039D  2B9F               	goto	u2531
  3293  039E  2BA0               	goto	u2530
  3294  039F                     u2531:	
  3295  039F  2BAD               	goto	l2804
  3296  03A0                     u2530:	
  3297  03A0                     l2796:	
  3298                           
  3299                           ;main.c: 264: ;main.c: 265:     min_array[0] = min / 10 + '0';
  3300  03A0  120A  158A  235C  120A  118A  	fcall	_clear_display
  3301  03A5                     l2798:	
  3302                           
  3303                           ;main.c: 266:     min_array[1] = min % 10 + '0';
  3304  03A5  1283               	bcf	3,5	;RP0=0, select bank0
  3305  03A6  1303               	bcf	3,6	;RP1=0, select bank0
  3306  03A7  1512               	bsf	18,2	;volatile
  3307  03A8                     l2800:	
  3308                           
  3309                           ;main.c: 267:     min_array[2] = '\0';
  3310  03A8  1507               	bsf	7,2	;volatile
  3311  03A9                     l2802:	
  3312                           
  3313                           ;main.c: 268:     if(wait++ == 50)
  3314  03A9  3006               	movlw	6
  3315  03AA  00BC               	movwf	_operation_mode
  3316  03AB  3000               	movlw	0
  3317  03AC  00BD               	movwf	_operation_mode+1
  3318  03AD                     l2804:	
  3319                           
  3320                           ;main.c: 271:         blink = !blink;
  3321  03AD  300A               	movlw	10
  3322  03AE  00F3               	movwf	___awdiv@divisor
  3323  03AF  3000               	movlw	0
  3324  03B0  00F4               	movwf	___awdiv@divisor+1
  3325  03B1  1283               	bcf	3,5	;RP0=0, select bank0
  3326  03B2  1303               	bcf	3,6	;RP1=0, select bank0
  3327  03B3  0837               	movf	_sec+1,w
  3328  03B4  00F6               	movwf	___awdiv@dividend+1
  3329  03B5  0836               	movf	_sec,w
  3330  03B6  00F5               	movwf	___awdiv@dividend
  3331  03B7  120A  158A  25FC  120A  118A  	fcall	___awdiv
  3332  03BC  0873               	movf	?___awdiv,w
  3333  03BD  3E30               	addlw	48
  3334  03BE  1283               	bcf	3,5	;RP0=0, select bank0
  3335  03BF  1303               	bcf	3,6	;RP1=0, select bank0
  3336  03C0  00CF               	movwf	??_set_time
  3337  03C1  084F               	movf	??_set_time,w
  3338  03C2  00C1               	movwf	_sec_array
  3339  03C3                     l2806:	
  3340                           
  3341                           ;main.c: 272:         clcd_print(min_array,(0xC0 + 6));
  3342  03C3  300A               	movlw	10
  3343  03C4  00C8               	movwf	___awmod@divisor
  3344  03C5  3000               	movlw	0
  3345  03C6  00C9               	movwf	___awmod@divisor+1
  3346  03C7  0837               	movf	_sec+1,w
  3347  03C8  00CB               	movwf	___awmod@dividend+1
  3348  03C9  0836               	movf	_sec,w
  3349  03CA  00CA               	movwf	___awmod@dividend
  3350  03CB  120A  158A  253E  120A  118A  	fcall	___awmod
  3351  03D0  1283               	bcf	3,5	;RP0=0, select bank0
  3352  03D1  1303               	bcf	3,6	;RP1=0, select bank0
  3353  03D2  0848               	movf	?___awmod,w
  3354  03D3  3E30               	addlw	48
  3355  03D4  00CF               	movwf	??_set_time
  3356  03D5  084F               	movf	??_set_time,w
  3357  03D6  00C2               	movwf	_sec_array+1
  3358  03D7                     l2808:	
  3359                           
  3360                           ;main.c: 273:         clcd_print(sec_array,(0xC0 + 9));
  3361  03D7  01C3               	clrf	_sec_array+2
  3362  03D8                     l2810:	
  3363                           
  3364                           ;main.c: 275:     if(blink)
  3365  03D8  300A               	movlw	10
  3366  03D9  00F3               	movwf	___awdiv@divisor
  3367  03DA  3000               	movlw	0
  3368  03DB  00F4               	movwf	___awdiv@divisor+1
  3369  03DC  0839               	movf	_min+1,w
  3370  03DD  00F6               	movwf	___awdiv@dividend+1
  3371  03DE  0838               	movf	_min,w
  3372  03DF  00F5               	movwf	___awdiv@dividend
  3373  03E0  120A  158A  25FC  120A  118A  	fcall	___awdiv
  3374  03E5  0873               	movf	?___awdiv,w
  3375  03E6  3E30               	addlw	48
  3376  03E7  1283               	bcf	3,5	;RP0=0, select bank0
  3377  03E8  1303               	bcf	3,6	;RP1=0, select bank0
  3378  03E9  00CF               	movwf	??_set_time
  3379  03EA  084F               	movf	??_set_time,w
  3380  03EB  00BE               	movwf	_min_array
  3381  03EC                     l2812:	
  3382                           
  3383                           ;main.c: 276:     {
  3384  03EC  300A               	movlw	10
  3385  03ED  00C8               	movwf	___awmod@divisor
  3386  03EE  3000               	movlw	0
  3387  03EF  00C9               	movwf	___awmod@divisor+1
  3388  03F0  0839               	movf	_min+1,w
  3389  03F1  00CB               	movwf	___awmod@dividend+1
  3390  03F2  0838               	movf	_min,w
  3391  03F3  00CA               	movwf	___awmod@dividend
  3392  03F4  120A  158A  253E  120A  118A  	fcall	___awmod
  3393  03F9  1283               	bcf	3,5	;RP0=0, select bank0
  3394  03FA  1303               	bcf	3,6	;RP1=0, select bank0
  3395  03FB  0848               	movf	?___awmod,w
  3396  03FC  3E30               	addlw	48
  3397  03FD  00CF               	movwf	??_set_time
  3398  03FE  084F               	movf	??_set_time,w
  3399  03FF  00BF               	movwf	_min_array+1
  3400  0400                     l2814:	
  3401                           
  3402                           ;main.c: 277:         switch(blink_pos)
  3403  0400  01C0               	clrf	_min_array+2
  3404  0401                     l2816:	
  3405                           
  3406                           ;main.c: 278:     {
  3407  0401  3001               	movlw	1
  3408  0402  07AC               	addwf	set_time@wait,f
  3409  0403  1803               	skipnc
  3410  0404  0AAD               	incf	set_time@wait+1,f
  3411  0405  3000               	movlw	0
  3412  0406  07AD               	addwf	set_time@wait+1,f
  3413  0407  3033               	movlw	51
  3414  0408  062C               	xorwf	set_time@wait,w
  3415  0409  042D               	iorwf	set_time@wait+1,w
  3416  040A  1D03               	btfss	3,2
  3417  040B  2C0D               	goto	u2541
  3418  040C  2C0E               	goto	u2540
  3419  040D                     u2541:	
  3420  040D  2C3A               	goto	l2826
  3421  040E                     u2540:	
  3422  040E                     l2818:	
  3423                           
  3424                           ;main.c: 279:             case 0:;main.c: 280:                 clcd_print("  ", (0xC0 + 
      +                          9));
  3425  040E  01AC               	clrf	set_time@wait
  3426  040F  01AD               	clrf	set_time@wait+1
  3427  0410                     l2820:	
  3428                           
  3429                           ;main.c: 281:                 break;
  3430  0410  082E               	movf	set_time@blink,w
  3431  0411  042F               	iorwf	set_time@blink+1,w
  3432  0412  1903               	btfsc	3,2
  3433  0413  2C15               	goto	u2551
  3434  0414  2C17               	goto	u2550
  3435  0415                     u2551:	
  3436  0415  3001               	movlw	1
  3437  0416  2C18               	goto	u2560
  3438  0417                     u2550:	
  3439  0417  3000               	movlw	0
  3440  0418                     u2560:	
  3441  0418  00CF               	movwf	??_set_time
  3442  0419  01D0               	clrf	??_set_time+1
  3443  041A  084F               	movf	??_set_time,w
  3444  041B  00AE               	movwf	set_time@blink
  3445  041C  0850               	movf	??_set_time+1,w
  3446  041D  00AF               	movwf	set_time@blink+1
  3447  041E                     l2822:	
  3448                           
  3449                           ;main.c: 282:             case 1:
  3450  041E  303E               	movlw	(low (_min_array| 0))& (0+255)
  3451  041F  00C4               	movwf	clcd_print@str
  3452  0420  3000               	movlw	0
  3453  0421  00C5               	movwf	clcd_print@str+1
  3454  0422  30C6               	movlw	198
  3455  0423  00CF               	movwf	??_set_time
  3456  0424  084F               	movf	??_set_time,w
  3457  0425  00C6               	movwf	clcd_print@addr
  3458  0426  120A  158A  2402  120A  118A  	fcall	_clcd_print
  3459  042B                     l2824:	
  3460                           
  3461                           ;main.c: 283:                 clcd_print("  ", (0xC0 + 6));
  3462  042B  3041               	movlw	(low (_sec_array| 0))& (0+255)
  3463  042C  1283               	bcf	3,5	;RP0=0, select bank0
  3464  042D  1303               	bcf	3,6	;RP1=0, select bank0
  3465  042E  00C4               	movwf	clcd_print@str
  3466  042F  3000               	movlw	0
  3467  0430  00C5               	movwf	clcd_print@str+1
  3468  0431  30C9               	movlw	201
  3469  0432  00CF               	movwf	??_set_time
  3470  0433  084F               	movf	??_set_time,w
  3471  0434  00C6               	movwf	clcd_print@addr
  3472  0435  120A  158A  2402  120A  118A  	fcall	_clcd_print
  3473  043A                     l2826:	
  3474                           
  3475                           ;main.c: 285:         }
  3476  043A  1283               	bcf	3,5	;RP0=0, select bank0
  3477  043B  1303               	bcf	3,6	;RP1=0, select bank0
  3478  043C  082E               	movf	set_time@blink,w
  3479  043D  042F               	iorwf	set_time@blink+1,w
  3480  043E  1903               	btfsc	3,2
  3481  043F  2C41               	goto	u2571
  3482  0440  2C42               	goto	u2570
  3483  0441                     u2571:	
  3484  0441  2C6C               	goto	l160
  3485  0442                     u2570:	
  3486  0442  2C5F               	goto	l2836
  3487  0443                     l2830:	
  3488                           
  3489                           ;main.c: 290:     if(RB3 == 0)
  3490  0443  300E               	movlw	low ((STR_18+14)| (0+32768))
  3491  0444  00C4               	movwf	clcd_print@str
  3492  0445  3085               	movlw	high ((STR_18+14)| (0+32768))
  3493  0446  00C5               	movwf	clcd_print@str+1
  3494  0447  30C9               	movlw	201
  3495  0448  00CF               	movwf	??_set_time
  3496  0449  084F               	movf	??_set_time,w
  3497  044A  00C6               	movwf	clcd_print@addr
  3498  044B  120A  158A  2402  120A  118A  	fcall	_clcd_print
  3499                           
  3500                           ;main.c: 291:     {
  3501  0450  2C6C               	goto	l160
  3502  0451                     l2832:	
  3503                           
  3504                           ;main.c: 293:         RC2 = 0;
  3505  0451  300E               	movlw	low ((STR_18+14)| (0+32768))
  3506  0452  00C4               	movwf	clcd_print@str
  3507  0453  3085               	movlw	high ((STR_18+14)| (0+32768))
  3508  0454  00C5               	movwf	clcd_print@str+1
  3509  0455  30C6               	movlw	198
  3510  0456  00CF               	movwf	??_set_time
  3511  0457  084F               	movf	??_set_time,w
  3512  0458  00C6               	movwf	clcd_print@addr
  3513  0459  120A  158A  2402  120A  118A  	fcall	_clcd_print
  3514                           
  3515                           ;main.c: 294:         TMR2ON = 0;
  3516  045E  2C6C               	goto	l160
  3517  045F                     l2836:	
  3518                           
  3519                           ; Switch on 2 bytes has been partitioned into a top level switch of size 1, and 1 sub-sw
      +                          itches
  3520                           ; Switch size 1, requested type "simple"
  3521                           ; Number of cases is 1, Range of values is 0 to 0
  3522                           ; switch strategies available:
  3523                           ; Name         Instructions Cycles
  3524                           ; simple_byte            4     3 (average)
  3525                           ; direct_byte           11     8 (fixed)
  3526                           ; jumptable            260     6 (fixed)
  3527                           ;	Chosen strategy is simple_byte
  3528  045F  082B               	movf	set_time@blink_pos+1,w
  3529  0460  3A00               	xorlw	0	; case 0
  3530  0461  1903               	skipnz
  3531  0462  2C64               	goto	l3178
  3532  0463  2C6C               	goto	l160
  3533  0464                     l3178:	
  3534                           
  3535                           ; Switch size 1, requested type "simple"
  3536                           ; Number of cases is 2, Range of values is 0 to 1
  3537                           ; switch strategies available:
  3538                           ; Name         Instructions Cycles
  3539                           ; simple_byte            7     4 (average)
  3540                           ; direct_byte           14     8 (fixed)
  3541                           ; jumptable            260     6 (fixed)
  3542                           ;	Chosen strategy is simple_byte
  3543  0464  082A               	movf	set_time@blink_pos,w
  3544  0465  3A00               	xorlw	0	; case 0
  3545  0466  1903               	skipnz
  3546  0467  2C43               	goto	l2830
  3547  0468  3A01               	xorlw	1	; case 1
  3548  0469  1903               	skipnz
  3549  046A  2C51               	goto	l2832
  3550  046B  2C6C               	goto	l160
  3551  046C                     l160:	
  3552  046C  0008               	return
  3553  046D                     __end_of_set_time:	
  3554                           
  3555                           	psect	text7
  3556  0028                     __ptext7:	
  3557 ;; *************** function _set_temp *****************
  3558 ;; Defined at:
  3559 ;;		line 358 in file "main.c"
  3560 ;; Parameters:    Size  Location     Type
  3561 ;;  key             1    wreg     unsigned char 
  3562 ;; Auto vars:     Size  Location     Type
  3563 ;;  key             1   16[BANK0 ] unsigned char 
  3564 ;; Return value:  Size  Location     Type
  3565 ;;                  1    wreg      unsigned char 
  3566 ;; Registers used:
  3567 ;;		wreg, fsr0l, fsr0h, status,2, status,0, btemp+1, pclath, cstack
  3568 ;; Tracked objects:
  3569 ;;		On entry : 0/0
  3570 ;;		On exit  : 0/0
  3571 ;;		Unchanged: 0/0
  3572 ;; Data sizes:     COMMON   BANK0   BANK1   BANK3   BANK2
  3573 ;;      Params:         0       0       0       0       0
  3574 ;;      Locals:         0       1       0       0       0
  3575 ;;      Temps:          0       3       0       0       0
  3576 ;;      Totals:         0       4       0       0       0
  3577 ;;Total ram usage:        4 bytes
  3578 ;; Hardware stack levels used:    1
  3579 ;; Hardware stack levels required when called:    4
  3580 ;; This function calls:
  3581 ;;		___awdiv
  3582 ;;		___awmod
  3583 ;;		___wmul
  3584 ;;		_clcd_print
  3585 ;;		_clcd_putch
  3586 ;;		_clear_display
  3587 ;;		_door_status_check
  3588 ;; This function is called by:
  3589 ;;		_opearation_call
  3590 ;; This function uses a non-reentrant model
  3591 ;;
  3592                           
  3593                           
  3594                           ;psect for function _set_temp
  3595  0028                     _set_temp:	
  3596                           
  3597                           ;incstack = 0
  3598                           ; Regs used in _set_temp: [wreg-fsr0h+status,2+status,0+btemp+1+pclath+cstack]
  3599                           ;set_temp@key stored from wreg
  3600  0028  1283               	bcf	3,5	;RP0=0, select bank0
  3601  0029  1303               	bcf	3,6	;RP1=0, select bank0
  3602  002A  00D4               	movwf	set_temp@key
  3603  002B                     l2842:	
  3604                           
  3605                           ;main.c: 358:         wait = 0;;main.c: 359:         clcd_print("SET TEMP. (  ", (0x80 +
      +                           0));;main.c: 360:         clcd_putch(0xDF, (0x80 + 12));;main.c: 361:         clcd_prin
      +                          t("C )", (0x80 + 13));
  3606  002B  3014               	movlw	20
  3607  002C  063A               	xorwf	_reset_flag,w
  3608  002D  043B               	iorwf	_reset_flag+1,w
  3609  002E  1D03               	btfss	3,2
  3610  002F  2831               	goto	u2581
  3611  0030  2832               	goto	u2580
  3612  0031                     u2581:	
  3613  0031  2884               	goto	l2864
  3614  0032                     u2580:	
  3615  0032                     l2844:	
  3616                           
  3617                           ;main.c: 362:         clcd_print(" TEMP : 000", (0xC0 + 0));;main.c: 364: 
  3618  0032  30FF               	movlw	255
  3619  0033  00D1               	movwf	??_set_temp
  3620  0034  0851               	movf	??_set_temp,w
  3621  0035  00D4               	movwf	set_temp@key
  3622  0036                     l2846:	
  3623                           
  3624                           ;main.c: 365:     }
  3625  0036  01A4               	clrf	set_temp@key_count
  3626  0037  01A5               	clrf	set_temp@key_count+1
  3627  0038                     l2848:	
  3628                           
  3629                           ;main.c: 366:      if(key != 0xFF && key != '*' && key != '#')
  3630  0038  01A8               	clrf	set_temp@blink
  3631  0039  01A9               	clrf	set_temp@blink+1
  3632  003A                     l2850:	
  3633                           
  3634                           ;main.c: 367:     {
  3635  003A  01A2               	clrf	set_temp@temp
  3636  003B  01A3               	clrf	set_temp@temp+1
  3637  003C                     l2852:	
  3638                           
  3639                           ;main.c: 368: 
  3640  003C  01A6               	clrf	set_temp@wait
  3641  003D  01A7               	clrf	set_temp@wait+1
  3642  003E                     l2854:	
  3643                           
  3644                           ;main.c: 369:         key_count++;
  3645  003E  30B4               	movlw	low (STR_20| (0+32768))
  3646  003F  00C4               	movwf	clcd_print@str
  3647  0040  3085               	movlw	high (STR_20| (0+32768))
  3648  0041  00C5               	movwf	clcd_print@str+1
  3649  0042  3080               	movlw	128
  3650  0043  00D1               	movwf	??_set_temp
  3651  0044  0851               	movf	??_set_temp,w
  3652  0045  00C6               	movwf	clcd_print@addr
  3653  0046  120A  158A  2402  120A  118A  	fcall	_clcd_print
  3654  004B                     l2856:	
  3655                           
  3656                           ;main.c: 370:         if(key_count <= 3)
  3657  004B  308C               	movlw	140
  3658  004C  1283               	bcf	3,5	;RP0=0, select bank0
  3659  004D  1303               	bcf	3,6	;RP1=0, select bank0
  3660  004E  00D1               	movwf	??_set_temp
  3661  004F  0851               	movf	??_set_temp,w
  3662  0050  00CF               	movwf	clcd_putch@addr
  3663  0051  30DF               	movlw	223
  3664  0052  120A  118A  27E7  120A  118A  	fcall	_clcd_putch
  3665  0057                     l2858:	
  3666                           
  3667                           ;main.c: 371:         {
  3668  0057  302F               	movlw	low (STR_21| (0+32768))
  3669  0058  1283               	bcf	3,5	;RP0=0, select bank0
  3670  0059  1303               	bcf	3,6	;RP1=0, select bank0
  3671  005A  00C4               	movwf	clcd_print@str
  3672  005B  3086               	movlw	high (STR_21| (0+32768))
  3673  005C  00C5               	movwf	clcd_print@str+1
  3674  005D  308D               	movlw	141
  3675  005E  00D1               	movwf	??_set_temp
  3676  005F  0851               	movf	??_set_temp,w
  3677  0060  00C6               	movwf	clcd_print@addr
  3678  0061  120A  158A  2402  120A  118A  	fcall	_clcd_print
  3679  0066                     l2860:	
  3680                           
  3681                           ;main.c: 372:         temp = temp * 10 + key;
  3682  0066  30EB               	movlw	low (STR_22| (0+32768))
  3683  0067  1283               	bcf	3,5	;RP0=0, select bank0
  3684  0068  1303               	bcf	3,6	;RP1=0, select bank0
  3685  0069  00C4               	movwf	clcd_print@str
  3686  006A  3085               	movlw	high (STR_22| (0+32768))
  3687  006B  00C5               	movwf	clcd_print@str+1
  3688  006C  30C0               	movlw	192
  3689  006D  00D1               	movwf	??_set_temp
  3690  006E  0851               	movf	??_set_temp,w
  3691  006F  00C6               	movwf	clcd_print@addr
  3692  0070  120A  158A  2402  120A  118A  	fcall	_clcd_print
  3693  0075                     l2862:	
  3694                           
  3695                           ;main.c: 373: 
  3696  0075  3066               	movlw	low (STR_10| (0+32768))
  3697  0076  1283               	bcf	3,5	;RP0=0, select bank0
  3698  0077  1303               	bcf	3,6	;RP1=0, select bank0
  3699  0078  00C4               	movwf	clcd_print@str
  3700  0079  3085               	movlw	high (STR_10| (0+32768))
  3701  007A  00C5               	movwf	clcd_print@str+1
  3702  007B  30D0               	movlw	208
  3703  007C  00D1               	movwf	??_set_temp
  3704  007D  0851               	movf	??_set_temp,w
  3705  007E  00C6               	movwf	clcd_print@addr
  3706  007F  120A  158A  2402  120A  118A  	fcall	_clcd_print
  3707  0084                     l2864:	
  3708                           
  3709                           ;main.c: 376:     }
  3710  0084  1283               	bcf	3,5	;RP0=0, select bank0
  3711  0085  1303               	bcf	3,6	;RP1=0, select bank0
  3712  0086  0A54               	incf	set_temp@key,w
  3713  0087  1903               	btfsc	3,2
  3714  0088  288A               	goto	u2591
  3715  0089  288B               	goto	u2590
  3716  008A                     u2591:	
  3717  008A  28C4               	goto	l2876
  3718  008B                     u2590:	
  3719  008B                     l2866:	
  3720  008B  302A               	movlw	42
  3721  008C  0654               	xorwf	set_temp@key,w
  3722  008D  1903               	btfsc	3,2
  3723  008E  2890               	goto	u2601
  3724  008F  2891               	goto	u2600
  3725  0090                     u2601:	
  3726  0090  28C4               	goto	l2876
  3727  0091                     u2600:	
  3728  0091                     l2868:	
  3729  0091  3023               	movlw	35
  3730  0092  0654               	xorwf	set_temp@key,w
  3731  0093  1903               	btfsc	3,2
  3732  0094  2896               	goto	u2611
  3733  0095  2897               	goto	u2610
  3734  0096                     u2611:	
  3735  0096  28C4               	goto	l2876
  3736  0097                     u2610:	
  3737  0097                     l2870:	
  3738                           
  3739                           ;main.c: 377:      else if(key == '*');main.c: 379:          key_count = 0;
  3740  0097  3001               	movlw	1
  3741  0098  07A4               	addwf	set_temp@key_count,f
  3742  0099  1803               	skipnc
  3743  009A  0AA5               	incf	set_temp@key_count+1,f
  3744  009B  3000               	movlw	0
  3745  009C  07A5               	addwf	set_temp@key_count+1,f
  3746  009D                     l2872:	
  3747                           
  3748                           ;main.c: 380:          temp = 0;
  3749  009D  0825               	movf	set_temp@key_count+1,w
  3750  009E  3A80               	xorlw	128
  3751  009F  00FF               	movwf	btemp+1
  3752  00A0  3080               	movlw	128
  3753  00A1  027F               	subwf	btemp+1,w
  3754  00A2  1D03               	skipz
  3755  00A3  28A6               	goto	u2625
  3756  00A4  3004               	movlw	4
  3757  00A5  0224               	subwf	set_temp@key_count,w
  3758  00A6                     u2625:	
  3759  00A6  1803               	skipnc
  3760  00A7  28A9               	goto	u2621
  3761  00A8  28AA               	goto	u2620
  3762  00A9                     u2621:	
  3763  00A9  29D5               	goto	l2928
  3764  00AA                     u2620:	
  3765  00AA                     l2874:	
  3766                           
  3767                           ;main.c: 381:      };main.c: 382:     else if (key == '#')
  3768  00AA  1283               	bcf	3,5	;RP0=0, select bank0
  3769  00AB  1303               	bcf	3,6	;RP1=0, select bank0
  3770  00AC  0823               	movf	set_temp@temp+1,w
  3771  00AD  00F4               	movwf	___wmul@multiplier+1
  3772  00AE  0822               	movf	set_temp@temp,w
  3773  00AF  00F3               	movwf	___wmul@multiplier
  3774  00B0  300A               	movlw	10
  3775  00B1  00F5               	movwf	___wmul@multiplicand
  3776  00B2  3000               	movlw	0
  3777  00B3  00F6               	movwf	___wmul@multiplicand+1
  3778  00B4  120A  158A  23D7  120A  118A  	fcall	___wmul
  3779  00B9  1283               	bcf	3,5	;RP0=0, select bank0
  3780  00BA  1303               	bcf	3,6	;RP1=0, select bank0
  3781  00BB  0854               	movf	set_temp@key,w
  3782  00BC  0773               	addwf	?___wmul,w
  3783  00BD  00A2               	movwf	set_temp@temp
  3784  00BE  3000               	movlw	0
  3785  00BF  1803               	skipnc
  3786  00C0  3001               	movlw	1
  3787  00C1  0774               	addwf	?___wmul+1,w
  3788  00C2  00A3               	movwf	set_temp@temp+1
  3789  00C3  29D5               	goto	l2928
  3790  00C4                     l2876:	
  3791  00C4  302A               	movlw	42
  3792  00C5  0654               	xorwf	set_temp@key,w
  3793  00C6  1D03               	btfss	3,2
  3794  00C7  28C9               	goto	u2631
  3795  00C8  28CA               	goto	u2630
  3796  00C9                     u2631:	
  3797  00C9  28CF               	goto	l2880
  3798  00CA                     u2630:	
  3799  00CA                     l2878:	
  3800                           
  3801                           ;main.c: 388:             RC1 = 1;;main.c: 389:            _delay((unsigned long)((2000)
      +                          *(20000000/4000.0)));
  3802  00CA  01A4               	clrf	set_temp@key_count
  3803  00CB  01A5               	clrf	set_temp@key_count+1
  3804                           
  3805                           ;main.c: 390:             RC1 = 0;
  3806  00CC  01A2               	clrf	set_temp@temp
  3807  00CD  01A3               	clrf	set_temp@temp+1
  3808                           
  3809                           ;main.c: 391:             clear_display();
  3810  00CE  29D5               	goto	l2928
  3811  00CF                     l2880:	
  3812  00CF  3023               	movlw	35
  3813  00D0  0654               	xorwf	set_temp@key,w
  3814  00D1  1D03               	btfss	3,2
  3815  00D2  28D4               	goto	u2641
  3816  00D3  28D5               	goto	u2640
  3817  00D4                     u2641:	
  3818  00D4  29D5               	goto	l2928
  3819  00D5                     u2640:	
  3820  00D5                     l2882:	
  3821                           
  3822                           ;main.c: 393:        };main.c: 394:        else
  3823  00D5  120A  158A  235C  120A  118A  	fcall	_clear_display
  3824  00DA                     l2884:	
  3825                           
  3826                           ;main.c: 395:        {
  3827  00DA  1283               	bcf	3,5	;RP0=0, select bank0
  3828  00DB  1303               	bcf	3,6	;RP1=0, select bank0
  3829  00DC  0823               	movf	set_temp@temp+1,w
  3830  00DD  3A80               	xorlw	128
  3831  00DE  00FF               	movwf	btemp+1
  3832  00DF  3080               	movlw	128
  3833  00E0  027F               	subwf	btemp+1,w
  3834  00E1  1D03               	skipz
  3835  00E2  28E5               	goto	u2655
  3836  00E3  30FB               	movlw	251
  3837  00E4  0222               	subwf	set_temp@temp,w
  3838  00E5                     u2655:	
  3839  00E5  1C03               	skipc
  3840  00E6  28E8               	goto	u2651
  3841  00E7  28E9               	goto	u2650
  3842  00E8                     u2651:	
  3843  00E8  2913               	goto	l2902
  3844  00E9                     u2650:	
  3845  00E9                     l2886:	
  3846                           
  3847                           ;main.c: 396:            clcd_print("  Pre-Heating", (0x80 + 0));;main.c: 397:          
      +                            sec = 50;
  3848  00E9  3096               	movlw	low (STR_24| (0+32768))
  3849  00EA  1283               	bcf	3,5	;RP0=0, select bank0
  3850  00EB  1303               	bcf	3,6	;RP1=0, select bank0
  3851  00EC  00C4               	movwf	clcd_print@str
  3852  00ED  3085               	movlw	high (STR_24| (0+32768))
  3853  00EE  00C5               	movwf	clcd_print@str+1
  3854  00EF  30C0               	movlw	192
  3855  00F0  00D1               	movwf	??_set_temp
  3856  00F1  0851               	movf	??_set_temp,w
  3857  00F2  00C6               	movwf	clcd_print@addr
  3858  00F3  120A  158A  2402  120A  118A  	fcall	_clcd_print
  3859  00F8                     l2888:	
  3860                           
  3861                           ;main.c: 398:            TMR2ON = 1;
  3862  00F8  1283               	bcf	3,5	;RP0=0, select bank0
  3863  00F9  1303               	bcf	3,6	;RP1=0, select bank0
  3864  00FA  1487               	bsf	7,1	;volatile
  3865  00FB                     l2890:	
  3866                           
  3867                           ;main.c: 399:            clcd_print("Time Rem.=", (0x90 + 0));
  3868  00FB  3033               	movlw	51
  3869  00FC  1283               	bcf	3,5	;RP0=0, select bank0
  3870  00FD  1303               	bcf	3,6	;RP1=0, select bank0
  3871  00FE  00D3               	movwf	??_set_temp+2
  3872  00FF  30BB               	movlw	187
  3873  0100  00D2               	movwf	??_set_temp+1
  3874  0101  30DF               	movlw	223
  3875  0102  00D1               	movwf	??_set_temp
  3876  0103                     u2967:	
  3877  0103  0BD1               	decfsz	??_set_temp,f
  3878  0104  2903               	goto	u2967
  3879  0105  0BD2               	decfsz	??_set_temp+1,f
  3880  0106  2903               	goto	u2967
  3881  0107  0BD3               	decfsz	??_set_temp+2,f
  3882  0108  2903               	goto	u2967
  3883  0109                     l2892:	
  3884                           
  3885                           ;main.c: 400: 
  3886  0109  1283               	bcf	3,5	;RP0=0, select bank0
  3887  010A  1303               	bcf	3,6	;RP1=0, select bank0
  3888  010B  1087               	bcf	7,1	;volatile
  3889  010C                     l2894:	
  3890                           
  3891                           ;main.c: 401:            while(sec)
  3892  010C  120A  158A  235C  120A  118A  	fcall	_clear_display
  3893  0111                     l2896:	
  3894                           
  3895                           ;main.c: 402:            {
  3896  0111  3001               	movlw	1
  3897  0112  2A69               	goto	l190
  3898  0113                     l2902:	
  3899                           
  3900                           ;main.c: 405:                {;main.c: 406:                   clcd_print("  Pre-Heating"
      +                          , (0x80 + 0));
  3901  0113  30D0               	movlw	low (STR_25| (0+32768))
  3902  0114  1283               	bcf	3,5	;RP0=0, select bank0
  3903  0115  1303               	bcf	3,6	;RP1=0, select bank0
  3904  0116  00C4               	movwf	clcd_print@str
  3905  0117  3085               	movlw	high (STR_25| (0+32768))
  3906  0118  00C5               	movwf	clcd_print@str+1
  3907  0119  3080               	movlw	128
  3908  011A  00D1               	movwf	??_set_temp
  3909  011B  0851               	movf	??_set_temp,w
  3910  011C  00C6               	movwf	clcd_print@addr
  3911  011D  120A  158A  2402  120A  118A  	fcall	_clcd_print
  3912  0122                     l2904:	
  3913                           
  3914                           ;main.c: 407:                   clcd_print("Time Rem.=", (0x90 + 0));
  3915  0122  3032               	movlw	50
  3916  0123  1283               	bcf	3,5	;RP0=0, select bank0
  3917  0124  1303               	bcf	3,6	;RP1=0, select bank0
  3918  0125  00B6               	movwf	_sec
  3919  0126  3000               	movlw	0
  3920  0127  00B7               	movwf	_sec+1
  3921  0128                     l2906:	
  3922                           
  3923                           ;main.c: 408:                }
  3924  0128  1512               	bsf	18,2	;volatile
  3925  0129                     l2908:	
  3926                           
  3927                           ;main.c: 409:                clcd_putch((sec / 100 + '0'), (0x90 + 10));
  3928  0129  3003               	movlw	low (STR_26| (0+32768))
  3929  012A  00C4               	movwf	clcd_print@str
  3930  012B  3086               	movlw	high (STR_26| (0+32768))
  3931  012C  00C5               	movwf	clcd_print@str+1
  3932  012D  3090               	movlw	144
  3933  012E  00D1               	movwf	??_set_temp
  3934  012F  0851               	movf	??_set_temp,w
  3935  0130  00C6               	movwf	clcd_print@addr
  3936  0131  120A  158A  2402  120A  118A  	fcall	_clcd_print
  3937                           
  3938                           ;main.c: 411:                clcd_putch(sec%10 + '0', (0x90 + 12));
  3939  0136  29CB               	goto	l2922
  3940  0137                     l2910:	
  3941                           
  3942                           ;main.c: 412:            };main.c: 413:            return 0;
  3943  0137  120A  158A  24A8  120A  118A  	fcall	_door_status_check
  3944  013C  1283               	bcf	3,5	;RP0=0, select bank0
  3945  013D  1303               	bcf	3,6	;RP1=0, select bank0
  3946  013E  00D1               	movwf	??_set_temp
  3947  013F  0C51               	rrf	??_set_temp,w
  3948  0140  1803               	btfsc	3,0
  3949  0141  2943               	goto	u2661
  3950  0142  2947               	goto	u2660
  3951  0143                     u2661:	
  3952  0143  1283               	bcf	3,5	;RP0=0, select bank0
  3953  0144  1303               	bcf	3,6	;RP1=0, select bank0
  3954  0145  1586               	bsf	6,3	;volatile
  3955  0146  294A               	goto	u2674
  3956  0147                     u2660:	
  3957  0147  1283               	bcf	3,5	;RP0=0, select bank0
  3958  0148  1303               	bcf	3,6	;RP1=0, select bank0
  3959  0149  1186               	bcf	6,3	;volatile
  3960  014A                     u2674:	
  3961  014A                     l2912:	
  3962                           
  3963                           ;main.c: 414:        }
  3964  014A  1D86               	btfss	6,3	;volatile
  3965  014B  294D               	goto	u2681
  3966  014C  294E               	goto	u2680
  3967  014D                     u2681:	
  3968  014D  296A               	goto	l2916
  3969  014E                     u2680:	
  3970  014E                     l2914:	
  3971                           
  3972                           ;main.c: 415: ;main.c: 416:     }
  3973  014E  30D0               	movlw	low (STR_25| (0+32768))
  3974  014F  00C4               	movwf	clcd_print@str
  3975  0150  3085               	movlw	high (STR_25| (0+32768))
  3976  0151  00C5               	movwf	clcd_print@str+1
  3977  0152  3080               	movlw	128
  3978  0153  00D1               	movwf	??_set_temp
  3979  0154  0851               	movf	??_set_temp,w
  3980  0155  00C6               	movwf	clcd_print@addr
  3981  0156  120A  158A  2402  120A  118A  	fcall	_clcd_print
  3982                           
  3983                           ;main.c: 417: 
  3984  015B  3003               	movlw	low (STR_26| (0+32768))
  3985  015C  1283               	bcf	3,5	;RP0=0, select bank0
  3986  015D  1303               	bcf	3,6	;RP1=0, select bank0
  3987  015E  00C4               	movwf	clcd_print@str
  3988  015F  3086               	movlw	high (STR_26| (0+32768))
  3989  0160  00C5               	movwf	clcd_print@str+1
  3990  0161  3090               	movlw	144
  3991  0162  00D1               	movwf	??_set_temp
  3992  0163  0851               	movf	??_set_temp,w
  3993  0164  00C6               	movwf	clcd_print@addr
  3994  0165  120A  158A  2402  120A  118A  	fcall	_clcd_print
  3995  016A                     l2916:	
  3996                           
  3997                           ;main.c: 419:     {
  3998  016A  309A               	movlw	154
  3999  016B  1283               	bcf	3,5	;RP0=0, select bank0
  4000  016C  1303               	bcf	3,6	;RP1=0, select bank0
  4001  016D  00D1               	movwf	??_set_temp
  4002  016E  0851               	movf	??_set_temp,w
  4003  016F  00CF               	movwf	clcd_putch@addr
  4004  0170  3064               	movlw	100
  4005  0171  00F3               	movwf	___awdiv@divisor
  4006  0172  3000               	movlw	0
  4007  0173  00F4               	movwf	___awdiv@divisor+1
  4008  0174  0837               	movf	_sec+1,w
  4009  0175  00F6               	movwf	___awdiv@dividend+1
  4010  0176  0836               	movf	_sec,w
  4011  0177  00F5               	movwf	___awdiv@dividend
  4012  0178  120A  158A  25FC  120A  118A  	fcall	___awdiv
  4013  017D  0873               	movf	?___awdiv,w
  4014  017E  3E30               	addlw	48
  4015  017F  120A  118A  27E7  120A  118A  	fcall	_clcd_putch
  4016  0184                     l2918:	
  4017                           
  4018                           ;main.c: 420:         wait = 0;
  4019  0184  309B               	movlw	155
  4020  0185  1283               	bcf	3,5	;RP0=0, select bank0
  4021  0186  1303               	bcf	3,6	;RP1=0, select bank0
  4022  0187  00D1               	movwf	??_set_temp
  4023  0188  0851               	movf	??_set_temp,w
  4024  0189  00CF               	movwf	clcd_putch@addr
  4025  018A  300A               	movlw	10
  4026  018B  00C8               	movwf	___awmod@divisor
  4027  018C  3000               	movlw	0
  4028  018D  00C9               	movwf	___awmod@divisor+1
  4029  018E  300A               	movlw	10
  4030  018F  00F3               	movwf	___awdiv@divisor
  4031  0190  3000               	movlw	0
  4032  0191  00F4               	movwf	___awdiv@divisor+1
  4033  0192  0837               	movf	_sec+1,w
  4034  0193  00F6               	movwf	___awdiv@dividend+1
  4035  0194  0836               	movf	_sec,w
  4036  0195  00F5               	movwf	___awdiv@dividend
  4037  0196  120A  158A  25FC  120A  118A  	fcall	___awdiv
  4038  019B  0874               	movf	?___awdiv+1,w
  4039  019C  1283               	bcf	3,5	;RP0=0, select bank0
  4040  019D  1303               	bcf	3,6	;RP1=0, select bank0
  4041  019E  00CB               	movwf	___awmod@dividend+1
  4042  019F  0873               	movf	?___awdiv,w
  4043  01A0  00CA               	movwf	___awmod@dividend
  4044  01A1  120A  158A  253E  120A  118A  	fcall	___awmod
  4045  01A6  1283               	bcf	3,5	;RP0=0, select bank0
  4046  01A7  1303               	bcf	3,6	;RP1=0, select bank0
  4047  01A8  0848               	movf	?___awmod,w
  4048  01A9  3E30               	addlw	48
  4049  01AA  120A  118A  27E7  120A  118A  	fcall	_clcd_putch
  4050  01AF                     l2920:	
  4051                           
  4052                           ;main.c: 421:         blink = !blink;
  4053  01AF  309C               	movlw	156
  4054  01B0  1283               	bcf	3,5	;RP0=0, select bank0
  4055  01B1  1303               	bcf	3,6	;RP1=0, select bank0
  4056  01B2  00D1               	movwf	??_set_temp
  4057  01B3  0851               	movf	??_set_temp,w
  4058  01B4  00CF               	movwf	clcd_putch@addr
  4059  01B5  300A               	movlw	10
  4060  01B6  00C8               	movwf	___awmod@divisor
  4061  01B7  3000               	movlw	0
  4062  01B8  00C9               	movwf	___awmod@divisor+1
  4063  01B9  0837               	movf	_sec+1,w
  4064  01BA  00CB               	movwf	___awmod@dividend+1
  4065  01BB  0836               	movf	_sec,w
  4066  01BC  00CA               	movwf	___awmod@dividend
  4067  01BD  120A  158A  253E  120A  118A  	fcall	___awmod
  4068  01C2  1283               	bcf	3,5	;RP0=0, select bank0
  4069  01C3  1303               	bcf	3,6	;RP1=0, select bank0
  4070  01C4  0848               	movf	?___awmod,w
  4071  01C5  3E30               	addlw	48
  4072  01C6  120A  118A  27E7  120A  118A  	fcall	_clcd_putch
  4073  01CB                     l2922:	
  4074                           
  4075                           ;main.c: 411:                clcd_putch(sec%10 + '0', (0x90 + 12));
  4076  01CB  1283               	bcf	3,5	;RP0=0, select bank0
  4077  01CC  1303               	bcf	3,6	;RP1=0, select bank0
  4078  01CD  0836               	movf	_sec,w
  4079  01CE  0437               	iorwf	_sec+1,w
  4080  01CF  1D03               	btfss	3,2
  4081  01D0  29D2               	goto	u2691
  4082  01D1  29D3               	goto	u2690
  4083  01D2                     u2691:	
  4084  01D2  2937               	goto	l2910
  4085  01D3                     u2690:	
  4086  01D3                     l2924:	
  4087                           
  4088                           ;main.c: 423:         clcd_putch((temp/10) % 10 + '0', (0xC0 + 9));
  4089  01D3  3000               	movlw	0
  4090  01D4  2A69               	goto	l190
  4091  01D5                     l2928:	
  4092                           
  4093                           ;main.c: 428:     if(blink)
  4094  01D5  3001               	movlw	1
  4095  01D6  1283               	bcf	3,5	;RP0=0, select bank0
  4096  01D7  1303               	bcf	3,6	;RP1=0, select bank0
  4097  01D8  07A6               	addwf	set_temp@wait,f
  4098  01D9  1803               	skipnc
  4099  01DA  0AA7               	incf	set_temp@wait+1,f
  4100  01DB  3000               	movlw	0
  4101  01DC  07A7               	addwf	set_temp@wait+1,f
  4102  01DD  301A               	movlw	26
  4103  01DE  0626               	xorwf	set_temp@wait,w
  4104  01DF  0427               	iorwf	set_temp@wait+1,w
  4105  01E0  1D03               	btfss	3,2
  4106  01E1  29E3               	goto	u2701
  4107  01E2  29E4               	goto	u2700
  4108  01E3                     u2701:	
  4109  01E3  2A53               	goto	l2940
  4110  01E4                     u2700:	
  4111  01E4                     l2930:	
  4112                           
  4113                           ;main.c: 429:     {;main.c: 430:                 clcd_print("   ", (0xC0 + 8));
  4114  01E4  01A6               	clrf	set_temp@wait
  4115  01E5  01A7               	clrf	set_temp@wait+1
  4116  01E6                     l2932:	
  4117                           
  4118                           ;main.c: 431:     }
  4119  01E6  0828               	movf	set_temp@blink,w
  4120  01E7  0429               	iorwf	set_temp@blink+1,w
  4121  01E8  1903               	btfsc	3,2
  4122  01E9  29EB               	goto	u2711
  4123  01EA  29ED               	goto	u2710
  4124  01EB                     u2711:	
  4125  01EB  3001               	movlw	1
  4126  01EC  29EE               	goto	u2720
  4127  01ED                     u2710:	
  4128  01ED  3000               	movlw	0
  4129  01EE                     u2720:	
  4130  01EE  00D1               	movwf	??_set_temp
  4131  01EF  01D2               	clrf	??_set_temp+1
  4132  01F0  0851               	movf	??_set_temp,w
  4133  01F1  00A8               	movwf	set_temp@blink
  4134  01F2  0852               	movf	??_set_temp+1,w
  4135  01F3  00A9               	movwf	set_temp@blink+1
  4136  01F4                     l2934:	
  4137                           
  4138                           ;main.c: 432:     return 0x11;
  4139  01F4  30C8               	movlw	200
  4140  01F5  00D1               	movwf	??_set_temp
  4141  01F6  0851               	movf	??_set_temp,w
  4142  01F7  00CF               	movwf	clcd_putch@addr
  4143  01F8  3064               	movlw	100
  4144  01F9  00F3               	movwf	___awdiv@divisor
  4145  01FA  3000               	movlw	0
  4146  01FB  00F4               	movwf	___awdiv@divisor+1
  4147  01FC  0823               	movf	set_temp@temp+1,w
  4148  01FD  00F6               	movwf	___awdiv@dividend+1
  4149  01FE  0822               	movf	set_temp@temp,w
  4150  01FF  00F5               	movwf	___awdiv@dividend
  4151  0200  120A  158A  25FC  120A  118A  	fcall	___awdiv
  4152  0205  0873               	movf	?___awdiv,w
  4153  0206  3E30               	addlw	48
  4154  0207  120A  118A  27E7  120A  118A  	fcall	_clcd_putch
  4155  020C                     l2936:	
  4156                           
  4157                           ;main.c: 433: }
  4158  020C  30C9               	movlw	201
  4159  020D  1283               	bcf	3,5	;RP0=0, select bank0
  4160  020E  1303               	bcf	3,6	;RP1=0, select bank0
  4161  020F  00D1               	movwf	??_set_temp
  4162  0210  0851               	movf	??_set_temp,w
  4163  0211  00CF               	movwf	clcd_putch@addr
  4164  0212  300A               	movlw	10
  4165  0213  00C8               	movwf	___awmod@divisor
  4166  0214  3000               	movlw	0
  4167  0215  00C9               	movwf	___awmod@divisor+1
  4168  0216  300A               	movlw	10
  4169  0217  00F3               	movwf	___awdiv@divisor
  4170  0218  3000               	movlw	0
  4171  0219  00F4               	movwf	___awdiv@divisor+1
  4172  021A  0823               	movf	set_temp@temp+1,w
  4173  021B  00F6               	movwf	___awdiv@dividend+1
  4174  021C  0822               	movf	set_temp@temp,w
  4175  021D  00F5               	movwf	___awdiv@dividend
  4176  021E  120A  158A  25FC  120A  118A  	fcall	___awdiv
  4177  0223  0874               	movf	?___awdiv+1,w
  4178  0224  1283               	bcf	3,5	;RP0=0, select bank0
  4179  0225  1303               	bcf	3,6	;RP1=0, select bank0
  4180  0226  00CB               	movwf	___awmod@dividend+1
  4181  0227  0873               	movf	?___awdiv,w
  4182  0228  00CA               	movwf	___awmod@dividend
  4183  0229  120A  158A  253E  120A  118A  	fcall	___awmod
  4184  022E  1283               	bcf	3,5	;RP0=0, select bank0
  4185  022F  1303               	bcf	3,6	;RP1=0, select bank0
  4186  0230  0848               	movf	?___awmod,w
  4187  0231  3E30               	addlw	48
  4188  0232  120A  118A  27E7  120A  118A  	fcall	_clcd_putch
  4189  0237                     l2938:	
  4190  0237  30CA               	movlw	202
  4191  0238  1283               	bcf	3,5	;RP0=0, select bank0
  4192  0239  1303               	bcf	3,6	;RP1=0, select bank0
  4193  023A  00D1               	movwf	??_set_temp
  4194  023B  0851               	movf	??_set_temp,w
  4195  023C  00CF               	movwf	clcd_putch@addr
  4196  023D  300A               	movlw	10
  4197  023E  00C8               	movwf	___awmod@divisor
  4198  023F  3000               	movlw	0
  4199  0240  00C9               	movwf	___awmod@divisor+1
  4200  0241  0823               	movf	set_temp@temp+1,w
  4201  0242  00CB               	movwf	___awmod@dividend+1
  4202  0243  0822               	movf	set_temp@temp,w
  4203  0244  00CA               	movwf	___awmod@dividend
  4204  0245  120A  158A  253E  120A  118A  	fcall	___awmod
  4205  024A  1283               	bcf	3,5	;RP0=0, select bank0
  4206  024B  1303               	bcf	3,6	;RP1=0, select bank0
  4207  024C  0848               	movf	?___awmod,w
  4208  024D  3E30               	addlw	48
  4209  024E  120A  118A  27E7  120A  118A  	fcall	_clcd_putch
  4210  0253                     l2940:	
  4211  0253  1283               	bcf	3,5	;RP0=0, select bank0
  4212  0254  1303               	bcf	3,6	;RP1=0, select bank0
  4213  0255  0828               	movf	set_temp@blink,w
  4214  0256  0429               	iorwf	set_temp@blink+1,w
  4215  0257  1903               	btfsc	3,2
  4216  0258  2A5A               	goto	u2731
  4217  0259  2A5B               	goto	u2730
  4218  025A                     u2731:	
  4219  025A  2A68               	goto	l2944
  4220  025B                     u2730:	
  4221  025B                     l2942:	
  4222  025B  300D               	movlw	low ((STR_18+13)| (0+32768))
  4223  025C  00C4               	movwf	clcd_print@str
  4224  025D  3085               	movlw	high ((STR_18+13)| (0+32768))
  4225  025E  00C5               	movwf	clcd_print@str+1
  4226  025F  30C8               	movlw	200
  4227  0260  00D1               	movwf	??_set_temp
  4228  0261  0851               	movf	??_set_temp,w
  4229  0262  00C6               	movwf	clcd_print@addr
  4230  0263  120A  158A  2402  120A  118A  	fcall	_clcd_print
  4231  0268                     l2944:	
  4232  0268  3011               	movlw	17
  4233  0269                     l190:	
  4234  0269  0008               	return
  4235  026A                     __end_of_set_temp:	
  4236                           
  4237                           	psect	text8
  4238  0CA8                     __ptext8:	
  4239 ;; *************** function _door_status_check *****************
  4240 ;; Defined at:
  4241 ;;		line 298 in file "main.c"
  4242 ;; Parameters:    Size  Location     Type
  4243 ;;		None
  4244 ;; Auto vars:     Size  Location     Type
  4245 ;;		None
  4246 ;; Return value:  Size  Location     Type
  4247 ;;                  1    wreg      unsigned char 
  4248 ;; Registers used:
  4249 ;;		wreg, fsr0l, fsr0h, status,2, status,0, btemp+1, pclath, cstack
  4250 ;; Tracked objects:
  4251 ;;		On entry : 0/0
  4252 ;;		On exit  : 0/0
  4253 ;;		Unchanged: 0/0
  4254 ;; Data sizes:     COMMON   BANK0   BANK1   BANK3   BANK2
  4255 ;;      Params:         0       0       0       0       0
  4256 ;;      Locals:         0       0       0       0       0
  4257 ;;      Temps:          1       0       0       0       0
  4258 ;;      Totals:         1       0       0       0       0
  4259 ;;Total ram usage:        1 bytes
  4260 ;; Hardware stack levels used:    1
  4261 ;; Hardware stack levels required when called:    3
  4262 ;; This function calls:
  4263 ;;		_clcd_print
  4264 ;;		_clear_display
  4265 ;; This function is called by:
  4266 ;;		_time_display
  4267 ;;		_set_temp
  4268 ;; This function uses a non-reentrant model
  4269 ;;
  4270                           
  4271                           
  4272                           ;psect for function _door_status_check
  4273  0CA8                     _door_status_check:	
  4274  0CA8                     l2584:	
  4275                           ;incstack = 0
  4276                           ; Regs used in _door_status_check: [wreg-fsr0h+status,2+status,0+btemp+1+pclath+cstack]
  4277                           
  4278                           
  4279                           ;main.c: 300:             ;
  4280  0CA8  1283               	bcf	3,5	;RP0=0, select bank0
  4281  0CA9  1303               	bcf	3,6	;RP1=0, select bank0
  4282  0CAA  1986               	btfsc	6,3	;volatile
  4283  0CAB  2CAD               	goto	u2221
  4284  0CAC  2CAE               	goto	u2220
  4285  0CAD                     u2221:	
  4286  0CAD  2CE4               	goto	l2602
  4287  0CAE                     u2220:	
  4288  0CAE                     l2586:	
  4289                           
  4290                           ;main.c: 301:         };main.c: 302:         clear_display();
  4291  0CAE  1487               	bsf	7,1	;volatile
  4292                           
  4293                           ;main.c: 303:         TMR2ON = 1;
  4294  0CAF  1107               	bcf	7,2	;volatile
  4295                           
  4296                           ;main.c: 304:         RC1 = 0;
  4297  0CB0  1112               	bcf	18,2	;volatile
  4298  0CB1                     l2588:	
  4299                           
  4300                           ;main.c: 305:         RC2 = 1;
  4301  0CB1  120A  158A  235C  120A  158A  	fcall	_clear_display
  4302  0CB6                     l2590:	
  4303                           
  4304                           ;main.c: 306: 
  4305  0CB6  3055               	movlw	low (STR_13| (0+32768))
  4306  0CB7  1283               	bcf	3,5	;RP0=0, select bank0
  4307  0CB8  1303               	bcf	3,6	;RP1=0, select bank0
  4308  0CB9  00C4               	movwf	clcd_print@str
  4309  0CBA  3085               	movlw	high (STR_13| (0+32768))
  4310  0CBB  00C5               	movwf	clcd_print@str+1
  4311  0CBC  30C0               	movlw	192
  4312  0CBD  00F7               	movwf	??_door_status_check
  4313  0CBE  0877               	movf	??_door_status_check,w
  4314  0CBF  00C6               	movwf	clcd_print@addr
  4315  0CC0  120A  158A  2402  120A  158A  	fcall	_clcd_print
  4316  0CC5                     l2592:	
  4317                           
  4318                           ;main.c: 307:     }
  4319  0CC5  30A5               	movlw	low (STR_14| (0+32768))
  4320  0CC6  1283               	bcf	3,5	;RP0=0, select bank0
  4321  0CC7  1303               	bcf	3,6	;RP1=0, select bank0
  4322  0CC8  00C4               	movwf	clcd_print@str
  4323  0CC9  3085               	movlw	high (STR_14| (0+32768))
  4324  0CCA  00C5               	movwf	clcd_print@str+1
  4325  0CCB  3090               	movlw	144
  4326  0CCC  00F7               	movwf	??_door_status_check
  4327  0CCD  0877               	movf	??_door_status_check,w
  4328  0CCE  00C6               	movwf	clcd_print@addr
  4329  0CCF  120A  158A  2402  120A  158A  	fcall	_clcd_print
  4330  0CD4                     l164:	
  4331                           ;main.c: 309: ;main.c: 311: }
  4332                           
  4333                           
  4334                           ;main.c: 308:     return 1;
  4335  0CD4  1283               	bcf	3,5	;RP0=0, select bank0
  4336  0CD5  1303               	bcf	3,6	;RP1=0, select bank0
  4337  0CD6  1D86               	btfss	6,3	;volatile
  4338  0CD7  2CD9               	goto	u2231
  4339  0CD8  2CDA               	goto	u2230
  4340  0CD9                     u2231:	
  4341  0CD9  2CD4               	goto	l164
  4342  0CDA                     u2230:	
  4343  0CDA                     l2594:	
  4344                           
  4345                           ;main.c: 312: void time_display(void)
  4346  0CDA  120A  158A  235C  120A  158A  	fcall	_clear_display
  4347  0CDF                     l2596:	
  4348                           
  4349                           ;main.c: 313: {
  4350  0CDF  1283               	bcf	3,5	;RP0=0, select bank0
  4351  0CE0  1303               	bcf	3,6	;RP1=0, select bank0
  4352  0CE1  1512               	bsf	18,2	;volatile
  4353  0CE2                     l2598:	
  4354                           
  4355                           ;main.c: 314:     door_status_check();
  4356  0CE2  1087               	bcf	7,1	;volatile
  4357  0CE3                     l2600:	
  4358                           
  4359                           ;main.c: 315:     clcd_print(" TIME = ", (0x80 + 0));
  4360  0CE3  1507               	bsf	7,2	;volatile
  4361  0CE4                     l2602:	
  4362                           
  4363                           ;main.c: 318:     min_array[2] = '\0';
  4364  0CE4  3001               	movlw	1
  4365  0CE5                     l167:	
  4366  0CE5  0008               	return
  4367  0CE6                     __end_of_door_status_check:	
  4368                           
  4369                           	psect	text9
  4370  0B5C                     __ptext9:	
  4371 ;; *************** function _clear_display *****************
  4372 ;; Defined at:
  4373 ;;		line 203 in file "main.c"
  4374 ;; Parameters:    Size  Location     Type
  4375 ;;		None
  4376 ;; Auto vars:     Size  Location     Type
  4377 ;;		None
  4378 ;; Return value:  Size  Location     Type
  4379 ;;                  1    wreg      void 
  4380 ;; Registers used:
  4381 ;;		wreg, status,2, status,0, pclath, cstack
  4382 ;; Tracked objects:
  4383 ;;		On entry : 0/0
  4384 ;;		On exit  : 0/0
  4385 ;;		Unchanged: 0/0
  4386 ;; Data sizes:     COMMON   BANK0   BANK1   BANK3   BANK2
  4387 ;;      Params:         0       0       0       0       0
  4388 ;;      Locals:         0       0       0       0       0
  4389 ;;      Temps:          0       0       0       0       0
  4390 ;;      Totals:         0       0       0       0       0
  4391 ;;Total ram usage:        0 bytes
  4392 ;; Hardware stack levels used:    1
  4393 ;; Hardware stack levels required when called:    2
  4394 ;; This function calls:
  4395 ;;		_clcd_write
  4396 ;; This function is called by:
  4397 ;;		_main
  4398 ;;		_opearation_call
  4399 ;;		_set_time
  4400 ;;		_door_status_check
  4401 ;;		_time_display
  4402 ;;		_set_temp
  4403 ;; This function uses a non-reentrant model
  4404 ;;
  4405                           
  4406                           
  4407                           ;psect for function _clear_display
  4408  0B5C                     _clear_display:	
  4409  0B5C                     l1774:	
  4410                           ;incstack = 0
  4411                           ; Regs used in _clear_display: [wreg+status,2+status,0+pclath+cstack]
  4412                           
  4413                           
  4414                           ;main.c: 204:         key_count = 0;
  4415  0B5C  01F3               	clrf	clcd_write@mode
  4416  0B5D  3001               	movlw	1
  4417  0B5E  120A  158A  2435  120A  158A  	fcall	_clcd_write
  4418  0B63                     l128:	
  4419  0B63  0008               	return
  4420  0B64                     __end_of_clear_display:	
  4421                           
  4422                           	psect	text10
  4423  07E7                     __ptext10:	
  4424 ;; *************** function _clcd_putch *****************
  4425 ;; Defined at:
  4426 ;;		line 63 in file "clcd.c"
  4427 ;; Parameters:    Size  Location     Type
  4428 ;;  data            1    wreg     const unsigned char 
  4429 ;;  addr            1   11[BANK0 ] unsigned char 
  4430 ;; Auto vars:     Size  Location     Type
  4431 ;;  data            1   12[BANK0 ] const unsigned char 
  4432 ;; Return value:  Size  Location     Type
  4433 ;;                  1    wreg      void 
  4434 ;; Registers used:
  4435 ;;		wreg, status,2, status,0, pclath, cstack
  4436 ;; Tracked objects:
  4437 ;;		On entry : 0/0
  4438 ;;		On exit  : 0/0
  4439 ;;		Unchanged: 0/0
  4440 ;; Data sizes:     COMMON   BANK0   BANK1   BANK3   BANK2
  4441 ;;      Params:         0       1       0       0       0
  4442 ;;      Locals:         0       1       0       0       0
  4443 ;;      Temps:          0       0       0       0       0
  4444 ;;      Totals:         0       2       0       0       0
  4445 ;;Total ram usage:        2 bytes
  4446 ;; Hardware stack levels used:    1
  4447 ;; Hardware stack levels required when called:    2
  4448 ;; This function calls:
  4449 ;;		_clcd_write
  4450 ;; This function is called by:
  4451 ;;		_power_on_screen
  4452 ;;		_time_display
  4453 ;;		_set_temp
  4454 ;; This function uses a non-reentrant model
  4455 ;;
  4456                           
  4457                           
  4458                           ;psect for function _clcd_putch
  4459  07E7                     _clcd_putch:	
  4460                           
  4461                           ;incstack = 0
  4462                           ; Regs used in _clcd_putch: [wreg+status,2+status,0+pclath+cstack]
  4463                           ;clcd_putch@data stored from wreg
  4464  07E7  1283               	bcf	3,5	;RP0=0, select bank0
  4465  07E8  1303               	bcf	3,6	;RP1=0, select bank0
  4466  07E9  00D0               	movwf	clcd_putch@data
  4467  07EA                     l1784:	
  4468                           
  4469                           ;clcd.c: 63: void clcd_putch(const char data, unsigned char addr);clcd.c: 64: {;clcd.c: 
      +                          65:     clcd_write(addr, 0);
  4470  07EA  01F3               	clrf	clcd_write@mode
  4471  07EB  084F               	movf	clcd_putch@addr,w
  4472  07EC  120A  158A  2435  120A  118A  	fcall	_clcd_write
  4473                           
  4474                           ;clcd.c: 66:     clcd_write(data, 1);
  4475  07F1  01F3               	clrf	clcd_write@mode
  4476  07F2  0AF3               	incf	clcd_write@mode,f
  4477  07F3  1283               	bcf	3,5	;RP0=0, select bank0
  4478  07F4  1303               	bcf	3,6	;RP1=0, select bank0
  4479  07F5  0850               	movf	clcd_putch@data,w
  4480  07F6  120A  158A  2435  120A  118A  	fcall	_clcd_write
  4481  07FB                     l291:	
  4482  07FB  0008               	return
  4483  07FC                     __end_of_clcd_putch:	
  4484                           
  4485                           	psect	text11
  4486  0BD7                     __ptext11:	
  4487 ;; *************** function ___wmul *****************
  4488 ;; Defined at:
  4489 ;;		line 15 in file "C:\Program Files (x86)\Microchip\xc8\v2.10\pic\sources\c90\common\Umul16.c"
  4490 ;; Parameters:    Size  Location     Type
  4491 ;;  multiplier      2    3[COMMON] unsigned int 
  4492 ;;  multiplicand    2    5[COMMON] unsigned int 
  4493 ;; Auto vars:     Size  Location     Type
  4494 ;;  product         2    0[BANK0 ] unsigned int 
  4495 ;; Return value:  Size  Location     Type
  4496 ;;                  2    3[COMMON] unsigned int 
  4497 ;; Registers used:
  4498 ;;		wreg, status,2, status,0
  4499 ;; Tracked objects:
  4500 ;;		On entry : 0/0
  4501 ;;		On exit  : 0/0
  4502 ;;		Unchanged: 0/0
  4503 ;; Data sizes:     COMMON   BANK0   BANK1   BANK3   BANK2
  4504 ;;      Params:         4       0       0       0       0
  4505 ;;      Locals:         0       2       0       0       0
  4506 ;;      Temps:          0       0       0       0       0
  4507 ;;      Totals:         4       2       0       0       0
  4508 ;;Total ram usage:        6 bytes
  4509 ;; Hardware stack levels used:    1
  4510 ;; Hardware stack levels required when called:    1
  4511 ;; This function calls:
  4512 ;;		Nothing
  4513 ;; This function is called by:
  4514 ;;		_set_time
  4515 ;;		_set_temp
  4516 ;; This function uses a non-reentrant model
  4517 ;;
  4518                           
  4519                           
  4520                           ;psect for function ___wmul
  4521  0BD7                     ___wmul:	
  4522  0BD7                     l2626:	
  4523                           ;incstack = 0
  4524                           ; Regs used in ___wmul: [wreg+status,2+status,0]
  4525                           
  4526  0BD7  1283               	bcf	3,5	;RP0=0, select bank0
  4527  0BD8  1303               	bcf	3,6	;RP1=0, select bank0
  4528  0BD9  01C4               	clrf	___wmul@product
  4529  0BDA  01C5               	clrf	___wmul@product+1
  4530  0BDB                     l2628:	
  4531  0BDB  1C73               	btfss	___wmul@multiplier,0
  4532  0BDC  2BDE               	goto	u2241
  4533  0BDD  2BDF               	goto	u2240
  4534  0BDE                     u2241:	
  4535  0BDE  2BE7               	goto	l414
  4536  0BDF                     u2240:	
  4537  0BDF                     l2630:	
  4538  0BDF  0875               	movf	___wmul@multiplicand,w
  4539  0BE0  1283               	bcf	3,5	;RP0=0, select bank0
  4540  0BE1  1303               	bcf	3,6	;RP1=0, select bank0
  4541  0BE2  07C4               	addwf	___wmul@product,f
  4542  0BE3  1803               	skipnc
  4543  0BE4  0AC5               	incf	___wmul@product+1,f
  4544  0BE5  0876               	movf	___wmul@multiplicand+1,w
  4545  0BE6  07C5               	addwf	___wmul@product+1,f
  4546  0BE7                     l414:	
  4547  0BE7  3001               	movlw	1
  4548  0BE8                     u2255:	
  4549  0BE8  1003               	clrc
  4550  0BE9  0DF5               	rlf	___wmul@multiplicand,f
  4551  0BEA  0DF6               	rlf	___wmul@multiplicand+1,f
  4552  0BEB  3EFF               	addlw	-1
  4553  0BEC  1D03               	skipz
  4554  0BED  2BE8               	goto	u2255
  4555  0BEE                     l2632:	
  4556  0BEE  3001               	movlw	1
  4557  0BEF                     u2265:	
  4558  0BEF  1003               	clrc
  4559  0BF0  0CF4               	rrf	___wmul@multiplier+1,f
  4560  0BF1  0CF3               	rrf	___wmul@multiplier,f
  4561  0BF2  3EFF               	addlw	-1
  4562  0BF3  1D03               	skipz
  4563  0BF4  2BEF               	goto	u2265
  4564  0BF5                     l2634:	
  4565  0BF5  0873               	movf	___wmul@multiplier,w
  4566  0BF6  0474               	iorwf	___wmul@multiplier+1,w
  4567  0BF7  1D03               	btfss	3,2
  4568  0BF8  2BFA               	goto	u2271
  4569  0BF9  2BFB               	goto	u2270
  4570  0BFA                     u2271:	
  4571  0BFA  2BDB               	goto	l2628
  4572  0BFB                     u2270:	
  4573  0BFB                     l2636:	
  4574  0BFB  1283               	bcf	3,5	;RP0=0, select bank0
  4575  0BFC  1303               	bcf	3,6	;RP1=0, select bank0
  4576  0BFD  0845               	movf	___wmul@product+1,w
  4577  0BFE  00F4               	movwf	?___wmul+1
  4578  0BFF  0844               	movf	___wmul@product,w
  4579  0C00  00F3               	movwf	?___wmul
  4580  0C01                     l416:	
  4581  0C01  0008               	return
  4582  0C02                     __end_of___wmul:	
  4583                           
  4584                           	psect	text12
  4585  0D3E                     __ptext12:	
  4586 ;; *************** function ___awmod *****************
  4587 ;; Defined at:
  4588 ;;		line 5 in file "C:\Program Files (x86)\Microchip\xc8\v2.10\pic\sources\c90\common\awmod.c"
  4589 ;; Parameters:    Size  Location     Type
  4590 ;;  divisor         2    4[BANK0 ] int 
  4591 ;;  dividend        2    6[BANK0 ] int 
  4592 ;; Auto vars:     Size  Location     Type
  4593 ;;  sign            1   10[BANK0 ] unsigned char 
  4594 ;;  counter         1    9[BANK0 ] unsigned char 
  4595 ;; Return value:  Size  Location     Type
  4596 ;;                  2    4[BANK0 ] int 
  4597 ;; Registers used:
  4598 ;;		wreg, status,2, status,0
  4599 ;; Tracked objects:
  4600 ;;		On entry : 0/0
  4601 ;;		On exit  : 0/0
  4602 ;;		Unchanged: 0/0
  4603 ;; Data sizes:     COMMON   BANK0   BANK1   BANK3   BANK2
  4604 ;;      Params:         0       4       0       0       0
  4605 ;;      Locals:         0       2       0       0       0
  4606 ;;      Temps:          0       1       0       0       0
  4607 ;;      Totals:         0       7       0       0       0
  4608 ;;Total ram usage:        7 bytes
  4609 ;; Hardware stack levels used:    1
  4610 ;; Hardware stack levels required when called:    1
  4611 ;; This function calls:
  4612 ;;		Nothing
  4613 ;; This function is called by:
  4614 ;;		_set_time
  4615 ;;		_time_display
  4616 ;;		_set_temp
  4617 ;; This function uses a non-reentrant model
  4618 ;;
  4619                           
  4620                           
  4621                           ;psect for function ___awmod
  4622  0D3E                     ___awmod:	
  4623  0D3E                     l2640:	
  4624                           ;incstack = 0
  4625                           ; Regs used in ___awmod: [wreg+status,2+status,0]
  4626                           
  4627  0D3E  1283               	bcf	3,5	;RP0=0, select bank0
  4628  0D3F  1303               	bcf	3,6	;RP1=0, select bank0
  4629  0D40  01CE               	clrf	___awmod@sign
  4630  0D41                     l2642:	
  4631  0D41  1FCB               	btfss	___awmod@dividend+1,7
  4632  0D42  2D44               	goto	u2281
  4633  0D43  2D45               	goto	u2280
  4634  0D44                     u2281:	
  4635  0D44  2D4C               	goto	l2648
  4636  0D45                     u2280:	
  4637  0D45                     l2644:	
  4638  0D45  09CA               	comf	___awmod@dividend,f
  4639  0D46  09CB               	comf	___awmod@dividend+1,f
  4640  0D47  0ACA               	incf	___awmod@dividend,f
  4641  0D48  1903               	skipnz
  4642  0D49  0ACB               	incf	___awmod@dividend+1,f
  4643  0D4A                     l2646:	
  4644  0D4A  01CE               	clrf	___awmod@sign
  4645  0D4B  0ACE               	incf	___awmod@sign,f
  4646  0D4C                     l2648:	
  4647  0D4C  1FC9               	btfss	___awmod@divisor+1,7
  4648  0D4D  2D4F               	goto	u2291
  4649  0D4E  2D50               	goto	u2290
  4650  0D4F                     u2291:	
  4651  0D4F  2D55               	goto	l2652
  4652  0D50                     u2290:	
  4653  0D50                     l2650:	
  4654  0D50  09C8               	comf	___awmod@divisor,f
  4655  0D51  09C9               	comf	___awmod@divisor+1,f
  4656  0D52  0AC8               	incf	___awmod@divisor,f
  4657  0D53  1903               	skipnz
  4658  0D54  0AC9               	incf	___awmod@divisor+1,f
  4659  0D55                     l2652:	
  4660  0D55  0848               	movf	___awmod@divisor,w
  4661  0D56  0449               	iorwf	___awmod@divisor+1,w
  4662  0D57  1903               	btfsc	3,2
  4663  0D58  2D5A               	goto	u2301
  4664  0D59  2D5B               	goto	u2300
  4665  0D5A                     u2301:	
  4666  0D5A  2D8A               	goto	l2670
  4667  0D5B                     u2300:	
  4668  0D5B                     l2654:	
  4669  0D5B  01CD               	clrf	___awmod@counter
  4670  0D5C  0ACD               	incf	___awmod@counter,f
  4671  0D5D  2D69               	goto	l2660
  4672  0D5E                     l2656:	
  4673  0D5E  3001               	movlw	1
  4674  0D5F                     u2315:	
  4675  0D5F  1003               	clrc
  4676  0D60  0DC8               	rlf	___awmod@divisor,f
  4677  0D61  0DC9               	rlf	___awmod@divisor+1,f
  4678  0D62  3EFF               	addlw	-1
  4679  0D63  1D03               	skipz
  4680  0D64  2D5F               	goto	u2315
  4681  0D65                     l2658:	
  4682  0D65  3001               	movlw	1
  4683  0D66  00CC               	movwf	??___awmod
  4684  0D67  084C               	movf	??___awmod,w
  4685  0D68  07CD               	addwf	___awmod@counter,f
  4686  0D69                     l2660:	
  4687  0D69  1FC9               	btfss	___awmod@divisor+1,7
  4688  0D6A  2D6C               	goto	u2321
  4689  0D6B  2D6D               	goto	u2320
  4690  0D6C                     u2321:	
  4691  0D6C  2D5E               	goto	l2656
  4692  0D6D                     u2320:	
  4693  0D6D                     l2662:	
  4694  0D6D  0849               	movf	___awmod@divisor+1,w
  4695  0D6E  024B               	subwf	___awmod@dividend+1,w
  4696  0D6F  1D03               	skipz
  4697  0D70  2D73               	goto	u2335
  4698  0D71  0848               	movf	___awmod@divisor,w
  4699  0D72  024A               	subwf	___awmod@dividend,w
  4700  0D73                     u2335:	
  4701  0D73  1C03               	skipc
  4702  0D74  2D76               	goto	u2331
  4703  0D75  2D77               	goto	u2330
  4704  0D76                     u2331:	
  4705  0D76  2D7D               	goto	l2666
  4706  0D77                     u2330:	
  4707  0D77                     l2664:	
  4708  0D77  0848               	movf	___awmod@divisor,w
  4709  0D78  02CA               	subwf	___awmod@dividend,f
  4710  0D79  0849               	movf	___awmod@divisor+1,w
  4711  0D7A  1C03               	skipc
  4712  0D7B  03CB               	decf	___awmod@dividend+1,f
  4713  0D7C  02CB               	subwf	___awmod@dividend+1,f
  4714  0D7D                     l2666:	
  4715  0D7D  3001               	movlw	1
  4716  0D7E                     u2345:	
  4717  0D7E  1003               	clrc
  4718  0D7F  0CC9               	rrf	___awmod@divisor+1,f
  4719  0D80  0CC8               	rrf	___awmod@divisor,f
  4720  0D81  3EFF               	addlw	-1
  4721  0D82  1D03               	skipz
  4722  0D83  2D7E               	goto	u2345
  4723  0D84                     l2668:	
  4724  0D84  3001               	movlw	1
  4725  0D85  02CD               	subwf	___awmod@counter,f
  4726  0D86  1D03               	btfss	3,2
  4727  0D87  2D89               	goto	u2351
  4728  0D88  2D8A               	goto	u2350
  4729  0D89                     u2351:	
  4730  0D89  2D6D               	goto	l2662
  4731  0D8A                     u2350:	
  4732  0D8A                     l2670:	
  4733  0D8A  084E               	movf	___awmod@sign,w
  4734  0D8B  1903               	btfsc	3,2
  4735  0D8C  2D8E               	goto	u2361
  4736  0D8D  2D8F               	goto	u2360
  4737  0D8E                     u2361:	
  4738  0D8E  2D94               	goto	l2674
  4739  0D8F                     u2360:	
  4740  0D8F                     l2672:	
  4741  0D8F  09CA               	comf	___awmod@dividend,f
  4742  0D90  09CB               	comf	___awmod@dividend+1,f
  4743  0D91  0ACA               	incf	___awmod@dividend,f
  4744  0D92  1903               	skipnz
  4745  0D93  0ACB               	incf	___awmod@dividend+1,f
  4746  0D94                     l2674:	
  4747  0D94  084B               	movf	___awmod@dividend+1,w
  4748  0D95  00C9               	movwf	?___awmod+1
  4749  0D96  084A               	movf	___awmod@dividend,w
  4750  0D97  00C8               	movwf	?___awmod
  4751  0D98                     l580:	
  4752  0D98  0008               	return
  4753  0D99                     __end_of___awmod:	
  4754                           
  4755                           	psect	text13
  4756  0DFC                     __ptext13:	
  4757 ;; *************** function ___awdiv *****************
  4758 ;; Defined at:
  4759 ;;		line 5 in file "C:\Program Files (x86)\Microchip\xc8\v2.10\pic\sources\c90\common\awdiv.c"
  4760 ;; Parameters:    Size  Location     Type
  4761 ;;  divisor         2    3[COMMON] int 
  4762 ;;  dividend        2    5[COMMON] int 
  4763 ;; Auto vars:     Size  Location     Type
  4764 ;;  quotient        2    2[BANK0 ] int 
  4765 ;;  sign            1    1[BANK0 ] unsigned char 
  4766 ;;  counter         1    0[BANK0 ] unsigned char 
  4767 ;; Return value:  Size  Location     Type
  4768 ;;                  2    3[COMMON] int 
  4769 ;; Registers used:
  4770 ;;		wreg, status,2, status,0
  4771 ;; Tracked objects:
  4772 ;;		On entry : 0/0
  4773 ;;		On exit  : 0/0
  4774 ;;		Unchanged: 0/0
  4775 ;; Data sizes:     COMMON   BANK0   BANK1   BANK3   BANK2
  4776 ;;      Params:         4       0       0       0       0
  4777 ;;      Locals:         0       4       0       0       0
  4778 ;;      Temps:          1       0       0       0       0
  4779 ;;      Totals:         5       4       0       0       0
  4780 ;;Total ram usage:        9 bytes
  4781 ;; Hardware stack levels used:    1
  4782 ;; Hardware stack levels required when called:    1
  4783 ;; This function calls:
  4784 ;;		Nothing
  4785 ;; This function is called by:
  4786 ;;		_set_time
  4787 ;;		_time_display
  4788 ;;		_set_temp
  4789 ;; This function uses a non-reentrant model
  4790 ;;
  4791                           
  4792                           
  4793                           ;psect for function ___awdiv
  4794  0DFC                     ___awdiv:	
  4795  0DFC                     l1842:	
  4796                           ;incstack = 0
  4797                           ; Regs used in ___awdiv: [wreg+status,2+status,0]
  4798                           
  4799  0DFC  1283               	bcf	3,5	;RP0=0, select bank0
  4800  0DFD  1303               	bcf	3,6	;RP1=0, select bank0
  4801  0DFE  01C5               	clrf	___awdiv@sign
  4802  0DFF                     l1844:	
  4803  0DFF  1FF4               	btfss	___awdiv@divisor+1,7
  4804  0E00  2E02               	goto	u1211
  4805  0E01  2E03               	goto	u1210
  4806  0E02                     u1211:	
  4807  0E02  2E0A               	goto	l1850
  4808  0E03                     u1210:	
  4809  0E03                     l1846:	
  4810  0E03  09F3               	comf	___awdiv@divisor,f
  4811  0E04  09F4               	comf	___awdiv@divisor+1,f
  4812  0E05  0AF3               	incf	___awdiv@divisor,f
  4813  0E06  1903               	skipnz
  4814  0E07  0AF4               	incf	___awdiv@divisor+1,f
  4815  0E08                     l1848:	
  4816  0E08  01C5               	clrf	___awdiv@sign
  4817  0E09  0AC5               	incf	___awdiv@sign,f
  4818  0E0A                     l1850:	
  4819  0E0A  1FF6               	btfss	___awdiv@dividend+1,7
  4820  0E0B  2E0D               	goto	u1221
  4821  0E0C  2E0E               	goto	u1220
  4822  0E0D                     u1221:	
  4823  0E0D  2E17               	goto	l1856
  4824  0E0E                     u1220:	
  4825  0E0E                     l1852:	
  4826  0E0E  09F5               	comf	___awdiv@dividend,f
  4827  0E0F  09F6               	comf	___awdiv@dividend+1,f
  4828  0E10  0AF5               	incf	___awdiv@dividend,f
  4829  0E11  1903               	skipnz
  4830  0E12  0AF6               	incf	___awdiv@dividend+1,f
  4831  0E13                     l1854:	
  4832  0E13  3001               	movlw	1
  4833  0E14  00F7               	movwf	??___awdiv
  4834  0E15  0877               	movf	??___awdiv,w
  4835  0E16  06C5               	xorwf	___awdiv@sign,f
  4836  0E17                     l1856:	
  4837  0E17  01C6               	clrf	___awdiv@quotient
  4838  0E18  01C7               	clrf	___awdiv@quotient+1
  4839  0E19                     l1858:	
  4840  0E19  0873               	movf	___awdiv@divisor,w
  4841  0E1A  0474               	iorwf	___awdiv@divisor+1,w
  4842  0E1B  1903               	btfsc	3,2
  4843  0E1C  2E1E               	goto	u1231
  4844  0E1D  2E1F               	goto	u1230
  4845  0E1E                     u1231:	
  4846  0E1E  2E56               	goto	l1878
  4847  0E1F                     u1230:	
  4848  0E1F                     l1860:	
  4849  0E1F  01C4               	clrf	___awdiv@counter
  4850  0E20  0AC4               	incf	___awdiv@counter,f
  4851  0E21  2E2D               	goto	l1866
  4852  0E22                     l1862:	
  4853  0E22  3001               	movlw	1
  4854  0E23                     u1245:	
  4855  0E23  1003               	clrc
  4856  0E24  0DF3               	rlf	___awdiv@divisor,f
  4857  0E25  0DF4               	rlf	___awdiv@divisor+1,f
  4858  0E26  3EFF               	addlw	-1
  4859  0E27  1D03               	skipz
  4860  0E28  2E23               	goto	u1245
  4861  0E29                     l1864:	
  4862  0E29  3001               	movlw	1
  4863  0E2A  00F7               	movwf	??___awdiv
  4864  0E2B  0877               	movf	??___awdiv,w
  4865  0E2C  07C4               	addwf	___awdiv@counter,f
  4866  0E2D                     l1866:	
  4867  0E2D  1FF4               	btfss	___awdiv@divisor+1,7
  4868  0E2E  2E30               	goto	u1251
  4869  0E2F  2E31               	goto	u1250
  4870  0E30                     u1251:	
  4871  0E30  2E22               	goto	l1862
  4872  0E31                     u1250:	
  4873  0E31                     l1868:	
  4874  0E31  3001               	movlw	1
  4875  0E32                     u1265:	
  4876  0E32  1003               	clrc
  4877  0E33  0DC6               	rlf	___awdiv@quotient,f
  4878  0E34  0DC7               	rlf	___awdiv@quotient+1,f
  4879  0E35  3EFF               	addlw	-1
  4880  0E36  1D03               	skipz
  4881  0E37  2E32               	goto	u1265
  4882  0E38  0874               	movf	___awdiv@divisor+1,w
  4883  0E39  0276               	subwf	___awdiv@dividend+1,w
  4884  0E3A  1D03               	skipz
  4885  0E3B  2E3E               	goto	u1275
  4886  0E3C  0873               	movf	___awdiv@divisor,w
  4887  0E3D  0275               	subwf	___awdiv@dividend,w
  4888  0E3E                     u1275:	
  4889  0E3E  1C03               	skipc
  4890  0E3F  2E41               	goto	u1271
  4891  0E40  2E42               	goto	u1270
  4892  0E41                     u1271:	
  4893  0E41  2E49               	goto	l1874
  4894  0E42                     u1270:	
  4895  0E42                     l1870:	
  4896  0E42  0873               	movf	___awdiv@divisor,w
  4897  0E43  02F5               	subwf	___awdiv@dividend,f
  4898  0E44  0874               	movf	___awdiv@divisor+1,w
  4899  0E45  1C03               	skipc
  4900  0E46  03F6               	decf	___awdiv@dividend+1,f
  4901  0E47  02F6               	subwf	___awdiv@dividend+1,f
  4902  0E48                     l1872:	
  4903  0E48  1446               	bsf	___awdiv@quotient,0
  4904  0E49                     l1874:	
  4905  0E49  3001               	movlw	1
  4906  0E4A                     u1285:	
  4907  0E4A  1003               	clrc
  4908  0E4B  0CF4               	rrf	___awdiv@divisor+1,f
  4909  0E4C  0CF3               	rrf	___awdiv@divisor,f
  4910  0E4D  3EFF               	addlw	-1
  4911  0E4E  1D03               	skipz
  4912  0E4F  2E4A               	goto	u1285
  4913  0E50                     l1876:	
  4914  0E50  3001               	movlw	1
  4915  0E51  02C4               	subwf	___awdiv@counter,f
  4916  0E52  1D03               	btfss	3,2
  4917  0E53  2E55               	goto	u1291
  4918  0E54  2E56               	goto	u1290
  4919  0E55                     u1291:	
  4920  0E55  2E31               	goto	l1868
  4921  0E56                     u1290:	
  4922  0E56                     l1878:	
  4923  0E56  0845               	movf	___awdiv@sign,w
  4924  0E57  1903               	btfsc	3,2
  4925  0E58  2E5A               	goto	u1301
  4926  0E59  2E5B               	goto	u1300
  4927  0E5A                     u1301:	
  4928  0E5A  2E60               	goto	l1882
  4929  0E5B                     u1300:	
  4930  0E5B                     l1880:	
  4931  0E5B  09C6               	comf	___awdiv@quotient,f
  4932  0E5C  09C7               	comf	___awdiv@quotient+1,f
  4933  0E5D  0AC6               	incf	___awdiv@quotient,f
  4934  0E5E  1903               	skipnz
  4935  0E5F  0AC7               	incf	___awdiv@quotient+1,f
  4936  0E60                     l1882:	
  4937  0E60  0847               	movf	___awdiv@quotient+1,w
  4938  0E61  00F4               	movwf	?___awdiv+1
  4939  0E62  0846               	movf	___awdiv@quotient,w
  4940  0E63  00F3               	movwf	?___awdiv
  4941  0E64                     l567:	
  4942  0E64  0008               	return
  4943  0E65                     __end_of___awdiv:	
  4944                           
  4945                           	psect	text14
  4946  0C6B                     __ptext14:	
  4947 ;; *************** function _cooking_mode_display *****************
  4948 ;; Defined at:
  4949 ;;		line 196 in file "main.c"
  4950 ;; Parameters:    Size  Location     Type
  4951 ;;		None
  4952 ;; Auto vars:     Size  Location     Type
  4953 ;;		None
  4954 ;; Return value:  Size  Location     Type
  4955 ;;                  1    wreg      void 
  4956 ;; Registers used:
  4957 ;;		wreg, fsr0l, fsr0h, status,2, status,0, btemp+1, pclath, cstack
  4958 ;; Tracked objects:
  4959 ;;		On entry : 0/0
  4960 ;;		On exit  : 0/0
  4961 ;;		Unchanged: 0/0
  4962 ;; Data sizes:     COMMON   BANK0   BANK1   BANK3   BANK2
  4963 ;;      Params:         0       0       0       0       0
  4964 ;;      Locals:         0       0       0       0       0
  4965 ;;      Temps:          1       0       0       0       0
  4966 ;;      Totals:         1       0       0       0       0
  4967 ;;Total ram usage:        1 bytes
  4968 ;; Hardware stack levels used:    1
  4969 ;; Hardware stack levels required when called:    3
  4970 ;; This function calls:
  4971 ;;		_clcd_print
  4972 ;; This function is called by:
  4973 ;;		_opearation_call
  4974 ;; This function uses a non-reentrant model
  4975 ;;
  4976                           
  4977                           
  4978                           ;psect for function _cooking_mode_display
  4979  0C6B                     _cooking_mode_display:	
  4980  0C6B                     l2686:	
  4981                           ;incstack = 0
  4982                           ; Regs used in _cooking_mode_display: [wreg-fsr0h+status,2+status,0+btemp+1+pclath+cstac
      +                          k]
  4983                           
  4984                           
  4985                           ;main.c: 197: void set_time(unsigned char key)
  4986  0C6B  301F               	movlw	low (STR_4| (0+32768))
  4987  0C6C  1283               	bcf	3,5	;RP0=0, select bank0
  4988  0C6D  1303               	bcf	3,6	;RP1=0, select bank0
  4989  0C6E  00C4               	movwf	clcd_print@str
  4990  0C6F  3086               	movlw	high (STR_4| (0+32768))
  4991  0C70  00C5               	movwf	clcd_print@str+1
  4992  0C71  3080               	movlw	128
  4993  0C72  00F7               	movwf	??_cooking_mode_display
  4994  0C73  0877               	movf	??_cooking_mode_display,w
  4995  0C74  00C6               	movwf	clcd_print@addr
  4996  0C75  120A  158A  2402  120A  158A  	fcall	_clcd_print
  4997                           
  4998                           ;main.c: 198: {
  4999  0C7A  3017               	movlw	low (STR_5| (0+32768))
  5000  0C7B  1283               	bcf	3,5	;RP0=0, select bank0
  5001  0C7C  1303               	bcf	3,6	;RP1=0, select bank0
  5002  0C7D  00C4               	movwf	clcd_print@str
  5003  0C7E  3086               	movlw	high (STR_5| (0+32768))
  5004  0C7F  00C5               	movwf	clcd_print@str+1
  5005  0C80  30C0               	movlw	192
  5006  0C81  00F7               	movwf	??_cooking_mode_display
  5007  0C82  0877               	movf	??_cooking_mode_display,w
  5008  0C83  00C6               	movwf	clcd_print@addr
  5009  0C84  120A  158A  2402  120A  158A  	fcall	_clcd_print
  5010                           
  5011                           ;main.c: 199:     static int blink, wait, blink_pos, key_count;
  5012  0C89  30DE               	movlw	low (STR_6| (0+32768))
  5013  0C8A  1283               	bcf	3,5	;RP0=0, select bank0
  5014  0C8B  1303               	bcf	3,6	;RP1=0, select bank0
  5015  0C8C  00C4               	movwf	clcd_print@str
  5016  0C8D  3085               	movlw	high (STR_6| (0+32768))
  5017  0C8E  00C5               	movwf	clcd_print@str+1
  5018  0C8F  3090               	movlw	144
  5019  0C90  00F7               	movwf	??_cooking_mode_display
  5020  0C91  0877               	movf	??_cooking_mode_display,w
  5021  0C92  00C6               	movwf	clcd_print@addr
  5022  0C93  120A  158A  2402  120A  158A  	fcall	_clcd_print
  5023                           
  5024                           ;main.c: 200:     if(reset_flag >= 0x11)
  5025  0C98  3027               	movlw	low (STR_7| (0+32768))
  5026  0C99  1283               	bcf	3,5	;RP0=0, select bank0
  5027  0C9A  1303               	bcf	3,6	;RP1=0, select bank0
  5028  0C9B  00C4               	movwf	clcd_print@str
  5029  0C9C  3086               	movlw	high (STR_7| (0+32768))
  5030  0C9D  00C5               	movwf	clcd_print@str+1
  5031  0C9E  30D0               	movlw	208
  5032  0C9F  00F7               	movwf	??_cooking_mode_display
  5033  0CA0  0877               	movf	??_cooking_mode_display,w
  5034  0CA1  00C6               	movwf	clcd_print@addr
  5035  0CA2  120A  158A  2402  120A  158A  	fcall	_clcd_print
  5036  0CA7                     l125:	
  5037  0CA7  0008               	return
  5038  0CA8                     __end_of_cooking_mode_display:	
  5039                           
  5040                           	psect	text15
  5041  0C02                     __ptext15:	
  5042 ;; *************** function _clcd_print *****************
  5043 ;; Defined at:
  5044 ;;		line 69 in file "clcd.c"
  5045 ;; Parameters:    Size  Location     Type
  5046 ;;  str             2    0[BANK0 ] PTR const unsigned char 
  5047 ;;		 -> STR_29(4), STR_28(11), STR_27(14), STR_26(11), 
  5048 ;;		 -> STR_25(14), STR_24(15), STR_23(17), STR_22(12), 
  5049 ;;		 -> STR_21(4), STR_20(14), STR_19(16), STR_18(17), 
  5050 ;;		 -> STR_17(17), STR_16(17), STR_15(9), STR_14(15), 
  5051 ;;		 -> STR_13(17), STR_12(3), STR_11(3), min_array(3), 
  5052 ;;		 -> sec_array(3), STR_10(17), STR_9(12), STR_8(17), 
  5053 ;;		 -> STR_7(8), STR_6(13), STR_5(8), STR_4(8), 
  5054 ;;		 -> STR_3(17), STR_2(15), STR_1(14), 
  5055 ;;  addr            1    2[BANK0 ] unsigned char 
  5056 ;; Auto vars:     Size  Location     Type
  5057 ;;		None
  5058 ;; Return value:  Size  Location     Type
  5059 ;;                  1    wreg      void 
  5060 ;; Registers used:
  5061 ;;		wreg, fsr0l, fsr0h, status,2, status,0, btemp+1, pclath, cstack
  5062 ;; Tracked objects:
  5063 ;;		On entry : 0/0
  5064 ;;		On exit  : 0/0
  5065 ;;		Unchanged: 0/0
  5066 ;; Data sizes:     COMMON   BANK0   BANK1   BANK3   BANK2
  5067 ;;      Params:         0       3       0       0       0
  5068 ;;      Locals:         0       0       0       0       0
  5069 ;;      Temps:          0       0       0       0       0
  5070 ;;      Totals:         0       3       0       0       0
  5071 ;;Total ram usage:        3 bytes
  5072 ;; Hardware stack levels used:    1
  5073 ;; Hardware stack levels required when called:    2
  5074 ;; This function calls:
  5075 ;;		_clcd_write
  5076 ;; This function is called by:
  5077 ;;		_main
  5078 ;;		_power_on_screen
  5079 ;;		_cooking_mode_display
  5080 ;;		_set_time
  5081 ;;		_door_status_check
  5082 ;;		_time_display
  5083 ;;		_set_temp
  5084 ;; This function uses a non-reentrant model
  5085 ;;
  5086                           
  5087                           
  5088                           ;psect for function _clcd_print
  5089  0C02                     _clcd_print:	
  5090  0C02                     l2576:	
  5091                           ;incstack = 0
  5092                           ; Regs used in _clcd_print: [wreg-fsr0h+status,2+status,0+btemp+1+pclath+cstack]
  5093                           
  5094                           
  5095                           ;clcd.c: 69: void clcd_print(const char *str, unsigned char addr);clcd.c: 70: {;clcd.c: 
      +                          71:     clcd_write(addr, 0);
  5096  0C02  01F3               	clrf	clcd_write@mode
  5097  0C03  1283               	bcf	3,5	;RP0=0, select bank0
  5098  0C04  1303               	bcf	3,6	;RP1=0, select bank0
  5099  0C05  0846               	movf	clcd_print@addr,w
  5100  0C06  120A  158A  2435  120A  158A  	fcall	_clcd_write
  5101                           
  5102                           ;clcd.c: 73:     while (*str != '\0')
  5103  0C0B  2C24               	goto	l2582
  5104  0C0C                     l2578:	
  5105                           
  5106                           ;clcd.c: 74:     {;clcd.c: 75:         clcd_write(*str, 1);
  5107  0C0C  01F3               	clrf	clcd_write@mode
  5108  0C0D  0AF3               	incf	clcd_write@mode,f
  5109  0C0E  0845               	movf	clcd_print@str+1,w
  5110  0C0F  00FF               	movwf	btemp+1
  5111  0C10  0844               	movf	clcd_print@str,w
  5112  0C11  0084               	movwf	4
  5113  0C12  120A  118A  24E7  120A  158A  	fcall	stringtab
  5114  0C17  120A  158A  2435  120A  158A  	fcall	_clcd_write
  5115  0C1C                     l2580:	
  5116                           
  5117                           ;clcd.c: 76:         str++;
  5118  0C1C  3001               	movlw	1
  5119  0C1D  1283               	bcf	3,5	;RP0=0, select bank0
  5120  0C1E  1303               	bcf	3,6	;RP1=0, select bank0
  5121  0C1F  07C4               	addwf	clcd_print@str,f
  5122  0C20  1803               	skipnc
  5123  0C21  0AC5               	incf	clcd_print@str+1,f
  5124  0C22  3000               	movlw	0
  5125  0C23  07C5               	addwf	clcd_print@str+1,f
  5126  0C24                     l2582:	
  5127                           
  5128                           ;clcd.c: 73:     while (*str != '\0')
  5129  0C24  1283               	bcf	3,5	;RP0=0, select bank0
  5130  0C25  1303               	bcf	3,6	;RP1=0, select bank0
  5131  0C26  0845               	movf	clcd_print@str+1,w
  5132  0C27  00FF               	movwf	btemp+1
  5133  0C28  0844               	movf	clcd_print@str,w
  5134  0C29  0084               	movwf	4
  5135  0C2A  120A  118A  24E7  120A  158A  	fcall	stringtab
  5136  0C2F  3A00               	xorlw	0
  5137  0C30  1D03               	skipz
  5138  0C31  2C33               	goto	u2211
  5139  0C32  2C34               	goto	u2210
  5140  0C33                     u2211:	
  5141  0C33  2C0C               	goto	l2578
  5142  0C34                     u2210:	
  5143  0C34                     l297:	
  5144  0C34  0008               	return
  5145  0C35                     __end_of_clcd_print:	
  5146                           
  5147                           	psect	text16
  5148  0B94                     __ptext16:	
  5149 ;; *************** function _init_config *****************
  5150 ;; Defined at:
  5151 ;;		line 13 in file "main.c"
  5152 ;; Parameters:    Size  Location     Type
  5153 ;;		None
  5154 ;; Auto vars:     Size  Location     Type
  5155 ;;		None
  5156 ;; Return value:  Size  Location     Type
  5157 ;;                  1    wreg      void 
  5158 ;; Registers used:
  5159 ;;		wreg, status,2, status,0, pclath, cstack
  5160 ;; Tracked objects:
  5161 ;;		On entry : 0/0
  5162 ;;		On exit  : 0/0
  5163 ;;		Unchanged: 0/0
  5164 ;; Data sizes:     COMMON   BANK0   BANK1   BANK3   BANK2
  5165 ;;      Params:         0       0       0       0       0
  5166 ;;      Locals:         0       0       0       0       0
  5167 ;;      Temps:          0       0       0       0       0
  5168 ;;      Totals:         0       0       0       0       0
  5169 ;;Total ram usage:        0 bytes
  5170 ;; Hardware stack levels used:    1
  5171 ;; Hardware stack levels required when called:    4
  5172 ;; This function calls:
  5173 ;;		_init_clcd
  5174 ;;		_init_matrix_keypad
  5175 ;;		_init_timer2
  5176 ;; This function is called by:
  5177 ;;		_main
  5178 ;; This function uses a non-reentrant model
  5179 ;;
  5180                           
  5181                           
  5182                           ;psect for function _init_config
  5183  0B94                     _init_config:	
  5184  0B94                     l2948:	
  5185                           ;incstack = 0
  5186                           ; Regs used in _init_config: [wreg+status,2+status,0+pclath+cstack]
  5187                           
  5188                           
  5189                           ;main.c: 14:     RC2 = 0;
  5190  0B94  120A  158A  236C  120A  158A  	fcall	_init_clcd
  5191                           
  5192                           ;main.c: 16:     PEIE = 1;
  5193  0B99  120A  158A  2384  120A  158A  	fcall	_init_matrix_keypad
  5194                           
  5195                           ;main.c: 18: }
  5196  0B9E  120A  158A  2377  120A  158A  	fcall	_init_timer2
  5197  0BA3                     l2950:	
  5198                           
  5199                           ;main.c: 20: void main(void) {
  5200  0BA3  1683               	bsf	3,5	;RP0=1, select bank1
  5201  0BA4  1303               	bcf	3,6	;RP1=0, select bank1
  5202  0BA5  1087               	bcf	7,1	;volatile
  5203  0BA6                     l2952:	
  5204                           
  5205                           ;main.c: 21:     unsigned char key;
  5206  0BA6  1283               	bcf	3,5	;RP0=0, select bank0
  5207  0BA7  1303               	bcf	3,6	;RP1=0, select bank0
  5208  0BA8  1087               	bcf	7,1	;volatile
  5209  0BA9                     l2954:	
  5210                           
  5211                           ;main.c: 23:     power_on_screen();
  5212  0BA9  1683               	bsf	3,5	;RP0=1, select bank1
  5213  0BAA  1303               	bcf	3,6	;RP1=0, select bank1
  5214  0BAB  1107               	bcf	7,2	;volatile
  5215  0BAC                     l2956:	
  5216                           
  5217                           ;main.c: 24:     clear_display();
  5218  0BAC  1283               	bcf	3,5	;RP0=0, select bank0
  5219  0BAD  1303               	bcf	3,6	;RP1=0, select bank0
  5220  0BAE  1107               	bcf	7,2	;volatile
  5221  0BAF                     l2958:	
  5222                           
  5223                           ;main.c: 26: 
  5224  0BAF  170B               	bsf	11,6	;volatile
  5225  0BB0                     l2960:	
  5226                           
  5227                           ;main.c: 27:     while(1) {
  5228  0BB0  178B               	bsf	11,7	;volatile
  5229  0BB1                     l67:	
  5230  0BB1  0008               	return
  5231  0BB2                     __end_of_init_config:	
  5232                           
  5233                           	psect	text17
  5234  0B77                     __ptext17:	
  5235 ;; *************** function _init_timer2 *****************
  5236 ;; Defined at:
  5237 ;;		line 4 in file "timers.c"
  5238 ;; Parameters:    Size  Location     Type
  5239 ;;		None
  5240 ;; Auto vars:     Size  Location     Type
  5241 ;;		None
  5242 ;; Return value:  Size  Location     Type
  5243 ;;                  1    wreg      void 
  5244 ;; Registers used:
  5245 ;;		wreg
  5246 ;; Tracked objects:
  5247 ;;		On entry : 0/0
  5248 ;;		On exit  : 0/0
  5249 ;;		Unchanged: 0/0
  5250 ;; Data sizes:     COMMON   BANK0   BANK1   BANK3   BANK2
  5251 ;;      Params:         0       0       0       0       0
  5252 ;;      Locals:         0       0       0       0       0
  5253 ;;      Temps:          0       0       0       0       0
  5254 ;;      Totals:         0       0       0       0       0
  5255 ;;Total ram usage:        0 bytes
  5256 ;; Hardware stack levels used:    1
  5257 ;; Hardware stack levels required when called:    1
  5258 ;; This function calls:
  5259 ;;		Nothing
  5260 ;; This function is called by:
  5261 ;;		_init_config
  5262 ;; This function uses a non-reentrant model
  5263 ;;
  5264                           
  5265                           
  5266                           ;psect for function _init_timer2
  5267  0B77                     _init_timer2:	
  5268  0B77                     l1944:	
  5269                           ;incstack = 0
  5270                           ; Regs used in _init_timer2: [wreg]
  5271                           
  5272                           
  5273                           ;timers.c: 7:     T2CKPS0 = 1;
  5274  0B77  1283               	bcf	3,5	;RP0=0, select bank0
  5275  0B78  1303               	bcf	3,6	;RP1=0, select bank0
  5276  0B79  1412               	bsf	18,0	;volatile
  5277                           
  5278                           ;timers.c: 8:     T2CKPS1 = 1;
  5279  0B7A  1492               	bsf	18,1	;volatile
  5280  0B7B                     l1946:	
  5281                           
  5282                           ;timers.c: 11:     PR2 = 250;
  5283  0B7B  30FA               	movlw	250
  5284  0B7C  1683               	bsf	3,5	;RP0=1, select bank1
  5285  0B7D  1303               	bcf	3,6	;RP1=0, select bank1
  5286  0B7E  0092               	movwf	18	;volatile
  5287  0B7F                     l1948:	
  5288                           
  5289                           ;timers.c: 14:     TMR2IE = 1;
  5290  0B7F  148C               	bsf	12,1	;volatile
  5291  0B80                     l1950:	
  5292                           
  5293                           ;timers.c: 17:     TMR2ON = 0;
  5294  0B80  1283               	bcf	3,5	;RP0=0, select bank0
  5295  0B81  1303               	bcf	3,6	;RP1=0, select bank0
  5296  0B82  1112               	bcf	18,2	;volatile
  5297  0B83                     l310:	
  5298  0B83  0008               	return
  5299  0B84                     __end_of_init_timer2:	
  5300                           
  5301                           	psect	text18
  5302  0B84                     __ptext18:	
  5303 ;; *************** function _init_matrix_keypad *****************
  5304 ;; Defined at:
  5305 ;;		line 12 in file "matrix_kaypad.c"
  5306 ;; Parameters:    Size  Location     Type
  5307 ;;		None
  5308 ;; Auto vars:     Size  Location     Type
  5309 ;;		None
  5310 ;; Return value:  Size  Location     Type
  5311 ;;                  1    wreg      void 
  5312 ;; Registers used:
  5313 ;;		wreg, status,2
  5314 ;; Tracked objects:
  5315 ;;		On entry : 0/0
  5316 ;;		On exit  : 0/0
  5317 ;;		Unchanged: 0/0
  5318 ;; Data sizes:     COMMON   BANK0   BANK1   BANK3   BANK2
  5319 ;;      Params:         0       0       0       0       0
  5320 ;;      Locals:         0       0       0       0       0
  5321 ;;      Temps:          0       0       0       0       0
  5322 ;;      Totals:         0       0       0       0       0
  5323 ;;Total ram usage:        0 bytes
  5324 ;; Hardware stack levels used:    1
  5325 ;; Hardware stack levels required when called:    1
  5326 ;; This function calls:
  5327 ;;		Nothing
  5328 ;; This function is called by:
  5329 ;;		_init_config
  5330 ;; This function uses a non-reentrant model
  5331 ;;
  5332                           
  5333                           
  5334                           ;psect for function _init_matrix_keypad
  5335  0B84                     _init_matrix_keypad:	
  5336  0B84                     l1932:	
  5337                           ;incstack = 0
  5338                           ; Regs used in _init_matrix_keypad: [wreg+status,2]
  5339                           
  5340                           
  5341                           ;matrix_kaypad.c: 15:     TRISB = TRISB | 0x07;
  5342  0B84  1683               	bsf	3,5	;RP0=1, select bank1
  5343  0B85  1303               	bcf	3,6	;RP1=0, select bank1
  5344  0B86  0806               	movf	6,w	;volatile
  5345  0B87  3807               	iorlw	7
  5346  0B88  0086               	movwf	6	;volatile
  5347                           
  5348                           ;matrix_kaypad.c: 17:     TRISD = TRISD & 0xF0;
  5349  0B89  0808               	movf	8,w	;volatile
  5350  0B8A  39F0               	andlw	240
  5351  0B8B  0088               	movwf	8	;volatile
  5352  0B8C                     l1934:	
  5353                           
  5354                           ;matrix_kaypad.c: 20:     nRBPU = 0;
  5355  0B8C  1381               	bcf	1,7	;volatile
  5356  0B8D                     l1936:	
  5357                           
  5358                           ;matrix_kaypad.c: 23:     RD3 = 1;
  5359  0B8D  1283               	bcf	3,5	;RP0=0, select bank0
  5360  0B8E  1303               	bcf	3,6	;RP1=0, select bank0
  5361  0B8F  1588               	bsf	8,3	;volatile
  5362  0B90                     l1938:	
  5363                           
  5364                           ;matrix_kaypad.c: 24:     RD2 = 1;
  5365  0B90  1508               	bsf	8,2	;volatile
  5366  0B91                     l1940:	
  5367                           
  5368                           ;matrix_kaypad.c: 25:     RD1 = 1;
  5369  0B91  1488               	bsf	8,1	;volatile
  5370  0B92                     l1942:	
  5371                           
  5372                           ;matrix_kaypad.c: 26:     RD0 = 1;
  5373  0B92  1408               	bsf	8,0	;volatile
  5374  0B93                     l220:	
  5375  0B93  0008               	return
  5376  0B94                     __end_of_init_matrix_keypad:	
  5377                           
  5378                           	psect	text19
  5379  0B6C                     __ptext19:	
  5380 ;; *************** function _init_clcd *****************
  5381 ;; Defined at:
  5382 ;;		line 51 in file "clcd.c"
  5383 ;; Parameters:    Size  Location     Type
  5384 ;;		None
  5385 ;; Auto vars:     Size  Location     Type
  5386 ;;		None
  5387 ;; Return value:  Size  Location     Type
  5388 ;;                  1    wreg      void 
  5389 ;; Registers used:
  5390 ;;		wreg, status,2, status,0, pclath, cstack
  5391 ;; Tracked objects:
  5392 ;;		On entry : 0/0
  5393 ;;		On exit  : 0/0
  5394 ;;		Unchanged: 0/0
  5395 ;; Data sizes:     COMMON   BANK0   BANK1   BANK3   BANK2
  5396 ;;      Params:         0       0       0       0       0
  5397 ;;      Locals:         0       0       0       0       0
  5398 ;;      Temps:          0       0       0       0       0
  5399 ;;      Totals:         0       0       0       0       0
  5400 ;;Total ram usage:        0 bytes
  5401 ;; Hardware stack levels used:    1
  5402 ;; Hardware stack levels required when called:    3
  5403 ;; This function calls:
  5404 ;;		_init_display_controller
  5405 ;; This function is called by:
  5406 ;;		_init_config
  5407 ;; This function uses a non-reentrant model
  5408 ;;
  5409                           
  5410                           
  5411                           ;psect for function _init_clcd
  5412  0B6C                     _init_clcd:	
  5413  0B6C                     l2678:	
  5414                           ;incstack = 0
  5415                           ; Regs used in _init_clcd: [wreg+status,2+status,0+pclath+cstack]
  5416                           
  5417                           
  5418                           ;clcd.c: 54:     TRISD = 0x00;
  5419  0B6C  1683               	bsf	3,5	;RP0=1, select bank1
  5420  0B6D  1303               	bcf	3,6	;RP1=0, select bank1
  5421  0B6E  0188               	clrf	8	;volatile
  5422  0B6F                     l2680:	
  5423                           
  5424                           ;clcd.c: 57:     TRISE2 = 0;
  5425  0B6F  1109               	bcf	9,2	;volatile
  5426  0B70                     l2682:	
  5427                           
  5428                           ;clcd.c: 58:     TRISE1 = 0;
  5429  0B70  1089               	bcf	9,1	;volatile
  5430  0B71                     l2684:	
  5431                           
  5432                           ;clcd.c: 60:     init_display_controller();
  5433  0B71  120A  158A  2599  120A  158A  	fcall	_init_display_controller
  5434  0B76                     l288:	
  5435  0B76  0008               	return
  5436  0B77                     __end_of_init_clcd:	
  5437                           
  5438                           	psect	text20
  5439  0D99                     __ptext20:	
  5440 ;; *************** function _init_display_controller *****************
  5441 ;; Defined at:
  5442 ;;		line 29 in file "clcd.c"
  5443 ;; Parameters:    Size  Location     Type
  5444 ;;		None
  5445 ;; Auto vars:     Size  Location     Type
  5446 ;;		None
  5447 ;; Return value:  Size  Location     Type
  5448 ;;                  1    wreg      void 
  5449 ;; Registers used:
  5450 ;;		wreg, status,2, status,0, pclath, cstack
  5451 ;; Tracked objects:
  5452 ;;		On entry : 0/0
  5453 ;;		On exit  : 0/0
  5454 ;;		Unchanged: 0/0
  5455 ;; Data sizes:     COMMON   BANK0   BANK1   BANK3   BANK2
  5456 ;;      Params:         0       0       0       0       0
  5457 ;;      Locals:         0       0       0       0       0
  5458 ;;      Temps:          0       2       0       0       0
  5459 ;;      Totals:         0       2       0       0       0
  5460 ;;Total ram usage:        2 bytes
  5461 ;; Hardware stack levels used:    1
  5462 ;; Hardware stack levels required when called:    2
  5463 ;; This function calls:
  5464 ;;		_clcd_write
  5465 ;; This function is called by:
  5466 ;;		_init_clcd
  5467 ;; This function uses a non-reentrant model
  5468 ;;
  5469                           
  5470                           
  5471                           ;psect for function _init_display_controller
  5472  0D99                     _init_display_controller:	
  5473  0D99                     l2606:	
  5474                           ;incstack = 0
  5475                           ; Regs used in _init_display_controller: [wreg+status,2+status,0+pclath+cstack]
  5476                           
  5477                           
  5478                           ;clcd.c: 32:     _delay((unsigned long)((30)*(20000000/4000.0)));
  5479  0D99  30C3               	movlw	195
  5480  0D9A  1283               	bcf	3,5	;RP0=0, select bank0
  5481  0D9B  1303               	bcf	3,6	;RP1=0, select bank0
  5482  0D9C  00C5               	movwf	??_init_display_controller+1
  5483  0D9D  30CC               	movlw	204
  5484  0D9E  00C4               	movwf	??_init_display_controller
  5485  0D9F                     u2977:	
  5486  0D9F  0BC4               	decfsz	??_init_display_controller,f
  5487  0DA0  2D9F               	goto	u2977
  5488  0DA1  0BC5               	decfsz	??_init_display_controller+1,f
  5489  0DA2  2D9F               	goto	u2977
  5490  0DA3  0000               	nop
  5491  0DA4                     l2608:	
  5492                           
  5493                           ;clcd.c: 35:     clcd_write(0x30, 0);
  5494  0DA4  01F3               	clrf	clcd_write@mode
  5495  0DA5  3030               	movlw	48
  5496  0DA6  120A  158A  2435  120A  158A  	fcall	_clcd_write
  5497  0DAB                     l2610:	
  5498                           
  5499                           ;clcd.c: 36:     _delay((unsigned long)((4100)*(20000000/4000000.0)));
  5500  0DAB  301B               	movlw	27
  5501  0DAC  1283               	bcf	3,5	;RP0=0, select bank0
  5502  0DAD  1303               	bcf	3,6	;RP1=0, select bank0
  5503  0DAE  00C5               	movwf	??_init_display_controller+1
  5504  0DAF  309D               	movlw	157
  5505  0DB0  00C4               	movwf	??_init_display_controller
  5506  0DB1                     u2987:	
  5507  0DB1  0BC4               	decfsz	??_init_display_controller,f
  5508  0DB2  2DB1               	goto	u2987
  5509  0DB3  0BC5               	decfsz	??_init_display_controller+1,f
  5510  0DB4  2DB1               	goto	u2987
  5511  0DB5  2DB6               	nop2
  5512                           
  5513                           ;clcd.c: 37:     clcd_write(0x30, 0);
  5514  0DB6  01F3               	clrf	clcd_write@mode
  5515  0DB7  3030               	movlw	48
  5516  0DB8  120A  158A  2435  120A  158A  	fcall	_clcd_write
  5517  0DBD                     l2612:	
  5518                           
  5519                           ;clcd.c: 38:     _delay((unsigned long)((100)*(20000000/4000000.0)));
  5520  0DBD  30A5               	movlw	165
  5521  0DBE  1283               	bcf	3,5	;RP0=0, select bank0
  5522  0DBF  1303               	bcf	3,6	;RP1=0, select bank0
  5523  0DC0  00C4               	movwf	??_init_display_controller
  5524  0DC1                     u2997:	
  5525  0DC1  0BC4               	decfsz	??_init_display_controller,f
  5526  0DC2  2DC1               	goto	u2997
  5527  0DC3  2DC4               	nop2
  5528  0DC4                     l2614:	
  5529                           
  5530                           ;clcd.c: 39:     clcd_write(0x30, 0);
  5531  0DC4  01F3               	clrf	clcd_write@mode
  5532  0DC5  3030               	movlw	48
  5533  0DC6  120A  158A  2435  120A  158A  	fcall	_clcd_write
  5534  0DCB                     l2616:	
  5535                           
  5536                           ;clcd.c: 40:     _delay((unsigned long)((1)*(20000000/4000000.0)));
  5537  0DCB  2DCC               	nop2	;2 cycle nop
  5538  0DCC  2DCD               	nop2	;2 cycle nop
  5539  0DCD  0000               	nop
  5540  0DCE                     l2618:	
  5541                           
  5542                           ;clcd.c: 42:     clcd_write(0x02 , 0);
  5543  0DCE  01F3               	clrf	clcd_write@mode
  5544  0DCF  3002               	movlw	2
  5545  0DD0  120A  158A  2435  120A  158A  	fcall	_clcd_write
  5546  0DD5                     l2620:	
  5547                           
  5548                           ;clcd.c: 43:     _delay((unsigned long)((100)*(20000000/4000000.0)));
  5549  0DD5  30A5               	movlw	165
  5550  0DD6  1283               	bcf	3,5	;RP0=0, select bank0
  5551  0DD7  1303               	bcf	3,6	;RP1=0, select bank0
  5552  0DD8  00C4               	movwf	??_init_display_controller
  5553  0DD9                     u3007:	
  5554  0DD9  0BC4               	decfsz	??_init_display_controller,f
  5555  0DDA  2DD9               	goto	u3007
  5556  0DDB  2DDC               	nop2
  5557                           
  5558                           ;clcd.c: 45:     clcd_write(0x01, 0);
  5559  0DDC  01F3               	clrf	clcd_write@mode
  5560  0DDD  3001               	movlw	1
  5561  0DDE  120A  158A  2435  120A  158A  	fcall	_clcd_write
  5562  0DE3                     l2622:	
  5563                           
  5564                           ;clcd.c: 46:     _delay((unsigned long)((500)*(20000000/4000000.0)));
  5565  0DE3  3004               	movlw	4
  5566  0DE4  1283               	bcf	3,5	;RP0=0, select bank0
  5567  0DE5  1303               	bcf	3,6	;RP1=0, select bank0
  5568  0DE6  00C5               	movwf	??_init_display_controller+1
  5569  0DE7  303D               	movlw	61
  5570  0DE8  00C4               	movwf	??_init_display_controller
  5571  0DE9                     u3017:	
  5572  0DE9  0BC4               	decfsz	??_init_display_controller,f
  5573  0DEA  2DE9               	goto	u3017
  5574  0DEB  0BC5               	decfsz	??_init_display_controller+1,f
  5575  0DEC  2DE9               	goto	u3017
  5576  0DED                     l2624:	
  5577                           
  5578                           ;clcd.c: 47:     clcd_write(0x0C, 0);
  5579  0DED  01F3               	clrf	clcd_write@mode
  5580  0DEE  300C               	movlw	12
  5581  0DEF  120A  158A  2435  120A  158A  	fcall	_clcd_write
  5582                           
  5583                           ;clcd.c: 48:     _delay((unsigned long)((100)*(20000000/4000000.0)));
  5584  0DF4  30A5               	movlw	165
  5585  0DF5  1283               	bcf	3,5	;RP0=0, select bank0
  5586  0DF6  1303               	bcf	3,6	;RP1=0, select bank0
  5587  0DF7  00C4               	movwf	??_init_display_controller
  5588  0DF8                     u3027:	
  5589  0DF8  0BC4               	decfsz	??_init_display_controller,f
  5590  0DF9  2DF8               	goto	u3027
  5591  0DFA  2DFB               	nop2
  5592  0DFB                     l285:	
  5593  0DFB  0008               	return
  5594  0DFC                     __end_of_init_display_controller:	
  5595                           
  5596                           	psect	text21
  5597  0C35                     __ptext21:	
  5598 ;; *************** function _clcd_write *****************
  5599 ;; Defined at:
  5600 ;;		line 12 in file "clcd.c"
  5601 ;; Parameters:    Size  Location     Type
  5602 ;;  byte            1    wreg     unsigned char 
  5603 ;;  mode            1    3[COMMON] unsigned char 
  5604 ;; Auto vars:     Size  Location     Type
  5605 ;;  byte            1    6[COMMON] unsigned char 
  5606 ;; Return value:  Size  Location     Type
  5607 ;;                  1    wreg      void 
  5608 ;; Registers used:
  5609 ;;		wreg, status,2, status,0
  5610 ;; Tracked objects:
  5611 ;;		On entry : 0/0
  5612 ;;		On exit  : 0/0
  5613 ;;		Unchanged: 0/0
  5614 ;; Data sizes:     COMMON   BANK0   BANK1   BANK3   BANK2
  5615 ;;      Params:         1       0       0       0       0
  5616 ;;      Locals:         1       0       0       0       0
  5617 ;;      Temps:          2       0       0       0       0
  5618 ;;      Totals:         4       0       0       0       0
  5619 ;;Total ram usage:        4 bytes
  5620 ;; Hardware stack levels used:    1
  5621 ;; Hardware stack levels required when called:    1
  5622 ;; This function calls:
  5623 ;;		Nothing
  5624 ;; This function is called by:
  5625 ;;		_main
  5626 ;;		_clear_display
  5627 ;;		_init_display_controller
  5628 ;;		_clcd_putch
  5629 ;;		_clcd_print
  5630 ;; This function uses a non-reentrant model
  5631 ;;
  5632                           
  5633                           
  5634                           ;psect for function _clcd_write
  5635  0C35                     _clcd_write:	
  5636                           
  5637                           ;incstack = 0
  5638                           ; Regs used in _clcd_write: [wreg+status,2+status,0]
  5639                           ;clcd_write@byte stored from wreg
  5640  0C35  00F6               	movwf	clcd_write@byte
  5641  0C36                     l1754:	
  5642                           
  5643                           ;clcd.c: 12: void clcd_write(unsigned char byte, unsigned char mode);clcd.c: 13: {;clcd.
      +                          c: 14:     RE2 = mode;
  5644  0C36  1873               	btfsc	clcd_write@mode,0
  5645  0C37  2C39               	goto	u1111
  5646  0C38  2C3D               	goto	u1110
  5647  0C39                     u1111:	
  5648  0C39  1283               	bcf	3,5	;RP0=0, select bank0
  5649  0C3A  1303               	bcf	3,6	;RP1=0, select bank0
  5650  0C3B  1509               	bsf	9,2	;volatile
  5651  0C3C  2C40               	goto	u1124
  5652  0C3D                     u1110:	
  5653  0C3D  1283               	bcf	3,5	;RP0=0, select bank0
  5654  0C3E  1303               	bcf	3,6	;RP1=0, select bank0
  5655  0C3F  1109               	bcf	9,2	;volatile
  5656  0C40                     u1124:	
  5657  0C40                     l1756:	
  5658                           
  5659                           ;clcd.c: 16:     PORTD = byte & 0xF0;
  5660  0C40  0876               	movf	clcd_write@byte,w
  5661  0C41  39F0               	andlw	240
  5662  0C42  0088               	movwf	8	;volatile
  5663  0C43                     l1758:	
  5664                           
  5665                           ;clcd.c: 17:     RE1 = 1;
  5666  0C43  1489               	bsf	9,1	;volatile
  5667  0C44                     l1760:	
  5668                           
  5669                           ;clcd.c: 18:     _delay((unsigned long)((100)*(20000000/4000000.0)));
  5670  0C44  30A6               	movlw	166
  5671  0C45  00F4               	movwf	??_clcd_write
  5672  0C46                     u3037:	
  5673  0C46  0BF4               	decfsz	??_clcd_write,f
  5674  0C47  2C46               	goto	u3037
  5675  0C48  0000               	nop
  5676  0C49                     l1762:	
  5677                           
  5678                           ;clcd.c: 19:     RE1 = 0;
  5679  0C49  1283               	bcf	3,5	;RP0=0, select bank0
  5680  0C4A  1303               	bcf	3,6	;RP1=0, select bank0
  5681  0C4B  1089               	bcf	9,1	;volatile
  5682  0C4C                     l1764:	
  5683                           
  5684                           ;clcd.c: 21:     PORTD = (byte & 0x0F) << 4;
  5685  0C4C  0876               	movf	clcd_write@byte,w
  5686  0C4D  390F               	andlw	15
  5687  0C4E  00F4               	movwf	??_clcd_write
  5688  0C4F  3003               	movlw	3
  5689  0C50                     u1135:	
  5690  0C50  1003               	clrc
  5691  0C51  0DF4               	rlf	??_clcd_write,f
  5692  0C52  3EFF               	addlw	-1
  5693  0C53  1D03               	skipz
  5694  0C54  2C50               	goto	u1135
  5695  0C55  1003               	clrc
  5696  0C56  0D74               	rlf	??_clcd_write,w
  5697  0C57  0088               	movwf	8	;volatile
  5698  0C58                     l1766:	
  5699                           
  5700                           ;clcd.c: 22:     RE1 = 1;
  5701  0C58  1489               	bsf	9,1	;volatile
  5702  0C59                     l1768:	
  5703                           
  5704                           ;clcd.c: 23:     _delay((unsigned long)((100)*(20000000/4000000.0)));
  5705  0C59  30A6               	movlw	166
  5706  0C5A  00F4               	movwf	??_clcd_write
  5707  0C5B                     u3047:	
  5708  0C5B  0BF4               	decfsz	??_clcd_write,f
  5709  0C5C  2C5B               	goto	u3047
  5710  0C5D  0000               	nop
  5711  0C5E                     l1770:	
  5712                           
  5713                           ;clcd.c: 24:     RE1 = 0;
  5714  0C5E  1283               	bcf	3,5	;RP0=0, select bank0
  5715  0C5F  1303               	bcf	3,6	;RP1=0, select bank0
  5716  0C60  1089               	bcf	9,1	;volatile
  5717  0C61                     l1772:	
  5718                           
  5719                           ;clcd.c: 26:     _delay((unsigned long)((4100)*(20000000/4000000.0)));
  5720  0C61  301B               	movlw	27
  5721  0C62  00F5               	movwf	??_clcd_write+1
  5722  0C63  309E               	movlw	158
  5723  0C64  00F4               	movwf	??_clcd_write
  5724  0C65                     u3057:	
  5725  0C65  0BF4               	decfsz	??_clcd_write,f
  5726  0C66  2C65               	goto	u3057
  5727  0C67  0BF5               	decfsz	??_clcd_write+1,f
  5728  0C68  2C65               	goto	u3057
  5729  0C69  0000               	nop
  5730  0C6A                     l282:	
  5731  0C6A  0008               	return
  5732  0C6B                     __end_of_clcd_write:	
  5733                           
  5734                           	psect	text22
  5735  0CE6                     __ptext22:	
  5736 ;; *************** function _isr *****************
  5737 ;; Defined at:
  5738 ;;		line 6 in file "../TimersSources/TimersSources/OneSencondTimer-Timer2.X/isr.c"
  5739 ;; Parameters:    Size  Location     Type
  5740 ;;		None
  5741 ;; Auto vars:     Size  Location     Type
  5742 ;;		None
  5743 ;; Return value:  Size  Location     Type
  5744 ;;                  1    wreg      void 
  5745 ;; Registers used:
  5746 ;;		wreg, status,2, status,0, btemp+1
  5747 ;; Tracked objects:
  5748 ;;		On entry : 0/0
  5749 ;;		On exit  : 0/0
  5750 ;;		Unchanged: 0/0
  5751 ;; Data sizes:     COMMON   BANK0   BANK1   BANK3   BANK2
  5752 ;;      Params:         0       0       0       0       0
  5753 ;;      Locals:         0       0       0       0       0
  5754 ;;      Temps:          3       0       0       0       0
  5755 ;;      Totals:         3       0       0       0       0
  5756 ;;Total ram usage:        3 bytes
  5757 ;; Hardware stack levels used:    1
  5758 ;; This function calls:
  5759 ;;		Nothing
  5760 ;; This function is called by:
  5761 ;;		Interrupt level 1
  5762 ;; This function uses a non-reentrant model
  5763 ;;
  5764                           
  5765                           
  5766                           ;psect for function _isr
  5767  0CE6                     _isr:	
  5768  0CE6                     i1l2508:	
  5769                           
  5770                           ;../TimersSources/TimersSources/OneSencondTimer-Timer2.X/isr.c: 8:     static unsigned i
      +                          nt count = 0;;../TimersSources/TimersSources/OneSencondTimer-Timer2.X/isr.c: 10:     if 
      +                          (TMR2IF == 1)
  5771  0CE6  1C8C               	btfss	12,1	;volatile
  5772  0CE7  2CE9               	goto	u216_21
  5773  0CE8  2CEA               	goto	u216_20
  5774  0CE9                     u216_21:	
  5775  0CE9  2D35               	goto	i1l328
  5776  0CEA                     u216_20:	
  5777  0CEA                     i1l2510:	
  5778                           
  5779                           ;../TimersSources/TimersSources/OneSencondTimer-Timer2.X/isr.c: 11:     {;../TimersSourc
      +                          es/TimersSources/OneSencondTimer-Timer2.X/isr.c: 12:         if (++count == 1250)
  5780  0CEA  3001               	movlw	1
  5781  0CEB  07A0               	addwf	isr@count,f
  5782  0CEC  1803               	skipnc
  5783  0CED  0AA1               	incf	isr@count+1,f
  5784  0CEE  3000               	movlw	0
  5785  0CEF  07A1               	addwf	isr@count+1,f
  5786  0CF0  30E2               	movlw	226
  5787  0CF1  0620               	xorwf	isr@count,w
  5788  0CF2  3004               	movlw	4
  5789  0CF3  1903               	skipnz
  5790  0CF4  0621               	xorwf	isr@count+1,w
  5791  0CF5  1D03               	btfss	3,2
  5792  0CF6  2CF8               	goto	u217_21
  5793  0CF7  2CF9               	goto	u217_20
  5794  0CF8                     u217_21:	
  5795  0CF8  2D32               	goto	i1l2524
  5796  0CF9                     u217_20:	
  5797  0CF9                     i1l2512:	
  5798                           
  5799                           ;../TimersSources/TimersSources/OneSencondTimer-Timer2.X/isr.c: 13:         {;../TimersS
      +                          ources/TimersSources/OneSencondTimer-Timer2.X/isr.c: 14:             count = 0;
  5800  0CF9  01A0               	clrf	isr@count
  5801  0CFA  01A1               	clrf	isr@count+1
  5802  0CFB                     i1l2514:	
  5803                           
  5804                           ;../TimersSources/TimersSources/OneSencondTimer-Timer2.X/isr.c: 15:             if(sec >
      +                           0)
  5805  0CFB  0837               	movf	_sec+1,w
  5806  0CFC  3A80               	xorlw	128
  5807  0CFD  00FF               	movwf	btemp+1
  5808  0CFE  3080               	movlw	128
  5809  0CFF  027F               	subwf	btemp+1,w
  5810  0D00  1D03               	skipz
  5811  0D01  2D04               	goto	u218_25
  5812  0D02  3001               	movlw	1
  5813  0D03  0236               	subwf	_sec,w
  5814  0D04                     u218_25:	
  5815  0D04  1C03               	skipc
  5816  0D05  2D07               	goto	u218_21
  5817  0D06  2D08               	goto	u218_20
  5818  0D07                     u218_21:	
  5819  0D07  2D11               	goto	i1l2518
  5820  0D08                     u218_20:	
  5821  0D08                     i1l2516:	
  5822                           
  5823                           ;../TimersSources/TimersSources/OneSencondTimer-Timer2.X/isr.c: 16:             {;../Tim
      +                          ersSources/TimersSources/OneSencondTimer-Timer2.X/isr.c: 17:                 sec--;
  5824  0D08  30FF               	movlw	255
  5825  0D09  1283               	bcf	3,5	;RP0=0, select bank0
  5826  0D0A  1303               	bcf	3,6	;RP1=0, select bank0
  5827  0D0B  07B6               	addwf	_sec,f
  5828  0D0C  1803               	skipnc
  5829  0D0D  0AB7               	incf	_sec+1,f
  5830  0D0E  30FF               	movlw	255
  5831  0D0F  07B7               	addwf	_sec+1,f
  5832                           
  5833                           ;../TimersSources/TimersSources/OneSencondTimer-Timer2.X/isr.c: 18:             }
  5834  0D10  2D32               	goto	i1l2524
  5835  0D11                     i1l2518:	
  5836  0D11  1283               	bcf	3,5	;RP0=0, select bank0
  5837  0D12  1303               	bcf	3,6	;RP1=0, select bank0
  5838  0D13  0836               	movf	_sec,w
  5839  0D14  0437               	iorwf	_sec+1,w
  5840  0D15  1D03               	btfss	3,2
  5841  0D16  2D18               	goto	u219_21
  5842  0D17  2D19               	goto	u219_20
  5843  0D18                     u219_21:	
  5844  0D18  2D32               	goto	i1l2524
  5845  0D19                     u219_20:	
  5846  0D19                     i1l2520:	
  5847  0D19  0839               	movf	_min+1,w
  5848  0D1A  3A80               	xorlw	128
  5849  0D1B  00FF               	movwf	btemp+1
  5850  0D1C  3080               	movlw	128
  5851  0D1D  027F               	subwf	btemp+1,w
  5852  0D1E  1D03               	skipz
  5853  0D1F  2D22               	goto	u220_25
  5854  0D20  3001               	movlw	1
  5855  0D21  0238               	subwf	_min,w
  5856  0D22                     u220_25:	
  5857  0D22  1C03               	skipc
  5858  0D23  2D25               	goto	u220_21
  5859  0D24  2D26               	goto	u220_20
  5860  0D25                     u220_21:	
  5861  0D25  2D32               	goto	i1l2524
  5862  0D26                     u220_20:	
  5863  0D26                     i1l2522:	
  5864                           
  5865                           ;../TimersSources/TimersSources/OneSencondTimer-Timer2.X/isr.c: 20:             {;../Tim
      +                          ersSources/TimersSources/OneSencondTimer-Timer2.X/isr.c: 21:                 min--;
  5866  0D26  30FF               	movlw	255
  5867  0D27  1283               	bcf	3,5	;RP0=0, select bank0
  5868  0D28  1303               	bcf	3,6	;RP1=0, select bank0
  5869  0D29  07B8               	addwf	_min,f
  5870  0D2A  1803               	skipnc
  5871  0D2B  0AB9               	incf	_min+1,f
  5872  0D2C  30FF               	movlw	255
  5873  0D2D  07B9               	addwf	_min+1,f
  5874                           
  5875                           ;../TimersSources/TimersSources/OneSencondTimer-Timer2.X/isr.c: 22:                 sec 
      +                          = 59;
  5876  0D2E  303B               	movlw	59
  5877  0D2F  00B6               	movwf	_sec
  5878  0D30  3000               	movlw	0
  5879  0D31  00B7               	movwf	_sec+1
  5880  0D32                     i1l2524:	
  5881                           
  5882                           ;../TimersSources/TimersSources/OneSencondTimer-Timer2.X/isr.c: 30:         TMR2IF = 0;
  5883  0D32  1283               	bcf	3,5	;RP0=0, select bank0
  5884  0D33  1303               	bcf	3,6	;RP1=0, select bank0
  5885  0D34  108C               	bcf	12,1	;volatile
  5886  0D35                     i1l328:	
  5887  0D35  0872               	movf	??_isr+2,w
  5888  0D36  00FF               	movwf	btemp+1
  5889  0D37  0871               	movf	??_isr+1,w
  5890  0D38  008A               	movwf	10
  5891  0D39  0E70               	swapf	??_isr^(0+4294967168),w
  5892  0D3A  0083               	movwf	3
  5893  0D3B  0EFE               	swapf	btemp,f
  5894  0D3C  0E7E               	swapf	btemp,w
  5895  0D3D  0009               	retfie
  5896  0D3E                     __end_of_isr:	
  5897  007E                     btemp	set	126	;btemp
  5898  007E                     wtemp0	set	126
  5899                           
  5900                           	psect	intentry
  5901  0004                     __pintentry:	
  5902                           ;incstack = 0
  5903                           ; Regs used in _isr: [wreg+status,2+status,0+btemp+1]
  5904                           
  5905  0004                     interrupt_function:	
  5906  007E                     saved_w	set	btemp
  5907  0004  00FE               	movwf	btemp
  5908  0005  0E03               	swapf	3,w
  5909  0006  00F0               	movwf	??_isr
  5910  0007  080A               	movf	10,w
  5911  0008  00F1               	movwf	??_isr+1
  5912  0009  1283               	bcf	3,5	;RP0=0, select bank0
  5913  000A  1303               	bcf	3,6	;RP1=0, select bank0
  5914  000B  087F               	movf	btemp+1,w
  5915  000C  00F2               	movwf	??_isr+2
  5916  000D  120A  158A  2CE6   	ljmp	_isr


Data Sizes:
    Strings     307
    Constant    0
    Data        1
    BSS         38
    Persistent  0
    Stack       0

Auto Spaces:
    Space          Size  Autos    Used
    COMMON           14      8      11
    BANK0            80     24      60
    BANK1            80      0       0
    BANK3            96      0       0
    BANK2            96      0       0

Pointer List with Targets:

    clcd_print@str	PTR const unsigned char  size(2) Largest target is 17
		 -> STR_29(CODE[4]), STR_28(CODE[11]), STR_27(CODE[14]), STR_26(CODE[11]), 
		 -> STR_25(CODE[14]), STR_24(CODE[15]), STR_23(CODE[17]), STR_22(CODE[12]), 
		 -> STR_21(CODE[4]), STR_20(CODE[14]), STR_19(CODE[16]), STR_18(CODE[17]), 
		 -> STR_17(CODE[17]), STR_16(CODE[17]), STR_15(CODE[9]), STR_14(CODE[15]), 
		 -> STR_13(CODE[17]), STR_12(CODE[3]), STR_11(CODE[3]), min_array(BANK0[3]), 
		 -> sec_array(BANK0[3]), STR_10(CODE[17]), STR_9(CODE[12]), STR_8(CODE[17]), 
		 -> STR_7(CODE[8]), STR_6(CODE[13]), STR_5(CODE[8]), STR_4(CODE[8]), 
		 -> STR_3(CODE[17]), STR_2(CODE[15]), STR_1(CODE[14]), 


Critical Paths under _main in COMMON

    _main->_read_matrix_keypad
    _read_matrix_keypad->_scan_keypad
    _opearation_call->_cooking_mode_display
    _time_display->___awdiv
    _time_display->_door_status_check
    _set_time->___awdiv
    _set_temp->___awdiv
    _set_temp->_door_status_check
    _clear_display->_clcd_write
    _clcd_putch->___awdiv
    ___awmod->___awdiv
    _clcd_print->_clcd_write
    _init_display_controller->_clcd_write

Critical Paths under _isr in COMMON

    None.

Critical Paths under _main in BANK0

    _main->_opearation_call
    _main->_power_on_screen
    _power_on_screen->_clcd_putch
    _opearation_call->_set_temp
    _time_display->_clcd_putch
    _set_time->___awmod
    _set_temp->_clcd_putch
    _door_status_check->_clcd_print
    _clcd_putch->___awmod
    ___awmod->___awdiv
    _cooking_mode_display->_clcd_print
    _init_clcd->_init_display_controller

Critical Paths under _isr in BANK0

    None.

Critical Paths under _main in BANK1

    None.

Critical Paths under _isr in BANK1

    None.

Critical Paths under _main in BANK3

    None.

Critical Paths under _isr in BANK3

    None.

Critical Paths under _main in BANK2

    None.

Critical Paths under _isr in BANK2

    None.

Call Graph Tables:

 ---------------------------------------------------------------------------------
 (Depth) Function   	        Calls       Base Space   Used Autos Params    Refs
 ---------------------------------------------------------------------------------
 (0) _main                                                 4     4      0   81980
                                             20 BANK0      4     4      0
                         _clcd_print
                         _clcd_write
                      _clear_display
                        _init_config
                    _opearation_call
                    _power_on_screen
                 _read_matrix_keypad
 ---------------------------------------------------------------------------------
 (1) _read_matrix_keypad                                   3     3      0     203
                                              5 COMMON     3     3      0
                        _scan_keypad
 ---------------------------------------------------------------------------------
 (2) _scan_keypad                                          2     2      0      92
                                              3 COMMON     2     2      0
 ---------------------------------------------------------------------------------
 (1) _power_on_screen                                      7     7      0    8966
                                             13 BANK0      7     7      0
                         _clcd_print
                         _clcd_putch
 ---------------------------------------------------------------------------------
 (1) _opearation_call                                      3     3      0   62823
                                             17 BANK0      3     3      0
                      _clear_display
               _cooking_mode_display
                           _set_temp
                           _set_time
                       _time_display
 ---------------------------------------------------------------------------------
 (2) _time_display                                         3     3      0   20947
                                             13 BANK0      3     3      0
                            ___awdiv
                            ___awmod
                         _clcd_print
                         _clcd_putch
                      _clear_display
                  _door_status_check
 ---------------------------------------------------------------------------------
 (2) _set_time                                             3     3      0   12097
                                             11 BANK0      3     3      0
                            ___awdiv
                            ___awmod
                             ___wmul
                         _clcd_print
                      _clear_display
 ---------------------------------------------------------------------------------
 (2) _set_temp                                             4     4      0   21812
                                             13 BANK0      4     4      0
                            ___awdiv
                            ___awmod
                             ___wmul
                         _clcd_print
                         _clcd_putch
                      _clear_display
                  _door_status_check
 ---------------------------------------------------------------------------------
 (3) _door_status_check                                    1     1      0    7812
                                              7 COMMON     1     1      0
                         _clcd_print
                      _clear_display
 ---------------------------------------------------------------------------------
 (4) _clear_display                                        0     0      0     978
                         _clcd_write
 ---------------------------------------------------------------------------------
 (2) _clcd_putch                                           2     1      1    1934
                                             11 BANK0      2     1      1
                            ___awdiv (ARG)
                            ___awmod (ARG)
                         _clcd_write
 ---------------------------------------------------------------------------------
 (3) ___wmul                                               6     2      4     676
                                              3 COMMON     4     0      4
                                              0 BANK0      2     2      0
 ---------------------------------------------------------------------------------
 (3) ___awmod                                              7     3      4    1873
                                              4 BANK0      7     3      4
                            ___awdiv (ARG)
 ---------------------------------------------------------------------------------
 (3) ___awdiv                                              9     5      4    1516
                                              3 COMMON     5     1      4
                                              0 BANK0      4     4      0
 ---------------------------------------------------------------------------------
 (2) _cooking_mode_display                                 1     1      0    6834
                                              7 COMMON     1     1      0
                         _clcd_print
 ---------------------------------------------------------------------------------
 (2) _clcd_print                                           3     0      3    6834
                                              0 BANK0      3     0      3
                         _clcd_write
 ---------------------------------------------------------------------------------
 (1) _init_config                                          0     0      0     978
                          _init_clcd
                 _init_matrix_keypad
                        _init_timer2
 ---------------------------------------------------------------------------------
 (2) _init_timer2                                          0     0      0       0
 ---------------------------------------------------------------------------------
 (2) _init_matrix_keypad                                   0     0      0       0
 ---------------------------------------------------------------------------------
 (2) _init_clcd                                            0     0      0     978
            _init_display_controller
 ---------------------------------------------------------------------------------
 (3) _init_display_controller                              2     2      0     978
                                              0 BANK0      2     2      0
                         _clcd_write
 ---------------------------------------------------------------------------------
 (3) _clcd_write                                           4     3      1     978
                                              3 COMMON     4     3      1
 ---------------------------------------------------------------------------------
 Estimated maximum stack depth 4
 ---------------------------------------------------------------------------------
 (Depth) Function   	        Calls       Base Space   Used Autos Params    Refs
 ---------------------------------------------------------------------------------
 (6) _isr                                                  3     3      0       0
                                              0 COMMON     3     3      0
 ---------------------------------------------------------------------------------
 Estimated maximum stack depth 6
 ---------------------------------------------------------------------------------

 Call Graph Graphs:

 _main (ROOT)
   _clcd_print
     _clcd_write
   _clcd_write
   _clear_display
     _clcd_write
   _init_config
     _init_clcd
       _init_display_controller
         _clcd_write
     _init_matrix_keypad
     _init_timer2
   _opearation_call
     _clear_display
       _clcd_write
     _cooking_mode_display
       _clcd_print
         _clcd_write
     _set_temp
       ___awdiv
       ___awmod
         ___awdiv (ARG)
       ___wmul
       _clcd_print
         _clcd_write
       _clcd_putch
         ___awdiv (ARG)
         ___awmod (ARG)
           ___awdiv (ARG)
         _clcd_write (ARG)
       _clear_display
         _clcd_write
       _door_status_check
         _clcd_print
           _clcd_write
         _clear_display
           _clcd_write
     _set_time
       ___awdiv
       ___awmod
         ___awdiv (ARG)
       ___wmul
       _clcd_print
         _clcd_write
       _clear_display
         _clcd_write
     _time_display
       ___awdiv
       ___awmod
         ___awdiv (ARG)
       _clcd_print
         _clcd_write
       _clcd_putch
         ___awdiv (ARG)
         ___awmod (ARG)
           ___awdiv (ARG)
         _clcd_write (ARG)
       _clear_display
         _clcd_write
       _door_status_check
         _clcd_print
           _clcd_write
         _clear_display
           _clcd_write
   _power_on_screen
     _clcd_print
       _clcd_write
     _clcd_putch
       ___awdiv (ARG)
       ___awmod (ARG)
         ___awdiv (ARG)
       _clcd_write (ARG)
   _read_matrix_keypad
     _scan_keypad

 _isr (ROOT)

 Address spaces:
Name               Size   Autos  Total    Cost      Usage
BANK3               60      0       0       9        0.0%
BITBANK3            60      0       0       8        0.0%
SFR3                 0      0       0       4        0.0%
BITSFR3              0      0       0       4        0.0%
BANK2               60      0       0      11        0.0%
BITBANK2            60      0       0      10        0.0%
SFR2                 0      0       0       5        0.0%
BITSFR2              0      0       0       5        0.0%
BANK1               50      0       0       7        0.0%
BITBANK1            50      0       0       6        0.0%
SFR1                 0      0       0       2        0.0%
BITSFR1              0      0       0       2        0.0%
BANK0               50     18      3C       5       75.0%
BITBANK0            50      0       0       4        0.0%
SFR0                 0      0       0       1        0.0%
BITSFR0              0      0       0       1        0.0%
COMMON               E      8       B       1       78.6%
BITCOMMON            E      0       0       0        0.0%
CODE                 0      0       0       0        0.0%
DATA                 0      0      47      12        0.0%
ABS                  0      0      47       3        0.0%
NULL                 0      0       0       0        0.0%
STACK                0      0       0       2        0.0%
EEDATA             100      0       0       0        0.0%


Microchip Technology PIC Macro Assembler V2.10 build 88905656 
Symbol Table                                                                                   Wed Aug 18 09:48:09 2021

                               pc 0002                    clcd_print@addr 0046  __size_of_init_display_controller 0063  
                              l67 0BB1                                l75 0669                      ___awdiv@sign 0045  
                              fsr 0004               ___wmul@multiplicand 0075                _init_matrix_keypad 0B84  
                             l113 0ED1                               l122 04E6                               l115 0F00  
                             l220 0B93                               l125 0CA7                               l310 0B83  
                             l128 0B63                               l160 046C                               l225 0753  
                             l250 07D1                               l242 07A7                               l234 077D  
                             l226 075B                               l171 0FFF                               l251 07D9  
                             l243 07AF                               l235 0785                               l227 07E6  
                             l164 0CD4                               l244 07BB                               l236 0791  
                             l228 0767                               l253 07DF                               l245 07B5  
                             l237 078B                               l229 0761                               l261 0BD6  
                             l414 0BE7                               l190 0269                               l167 0CE5  
                             l416 0C01                               l282 0C6A                               l291 07FB  
                             l285 0DFB                               l288 0B76                               l297 0C34  
                             l580 0D98                               l567 0E64                               _GIE 005F  
                             _RB0 0030                               _RB1 0031                               _RB2 0032  
                             _RC1 0039                               _RB3 0033                               _RC2 003A  
                             _RD0 0040                               _RD1 0041                               _RD2 0042  
                             _RD3 0043                               _RE1 0049                               _RE2 004A  
                             _PR2 0092                               _min 0038                               _sec 0036  
                             _isr 0CE6                               _ret 0034                    clcd_putch@addr 004F  
                             fsr0 0004                    clcd_putch@data 0050                               indf 0000  
                    ___awmod@sign 004E     __size_of_cooking_mode_display 003D               ?_init_matrix_keypad 0070  
                            l3000 0E83                              l3010 0EAC                              l3002 0E89  
                            l3012 0EAD                              l3020 0EC7                              l3004 0E97  
                            l2220 0759                              l3100 06EC                              l3014 0EB5  
                            l3006 0E9D                              l3022 0ECA                              l3030 0EF4  
                            l2214 073B                              l3110 0713                              l3102 06F9  
                            l3032 0EFC                              l3024 0ED3                              l3016 0EBA  
                            l3008 0EA6                              l2240 0783                              l2232 0765  
                            l2216 0741                              l3120 072A                              l3104 0701  
                            l3112 0718                              l3040 0633                              l3018 0EC0  
                            l2226 075F                              l2218 0745                              l3114 071E  
                            l3106 070A                              l3050 0653                              l3042 0638  
                            l3028 0ED8                              l2260 07AD                              l2252 078F  
                            l2236 076B                              l3116 0722                              l3108 0711  
                            l3060 0677                              l3052 065A                              l3124 072F  
                            l3044 063D                              l2246 0789                              l2238 076F  
                            l2342 0BB3                              l3118 0724                              l3062 067E  
                            l3070 06A6                              l3054 0661                              l3046 0642  
                            l2600 0CE3                              l2280 07D7                              l2272 07B9  
                            l2256 0795                              l2352 0BC2                              l2344 0BBB  
                            l3072 06AC                              l3064 0683                              l3056 066A  
                            l3048 0648                              l2610 0DAB                              l2602 0CE4  
                            l2266 07B3                              l2258 0799                              l2354 0BC7  
                            l2346 0BC0                              l3090 06D6                              l3082 06C4  
                            l3066 0692                              l3058 066F                              l2620 0DD5  
                            l2612 0DBD                              l2700 0F59                              l2292 07E3  
                            l2276 07BF                              l2356 0BCC                              l2364 0BCE  
                            l3092 06D7                              l3084 06CA                              l3076 06B5  
                            l3068 06A0                              l2622 0DE3                              l2614 0DC4  
                            l2606 0D99                              l2630 0BDF                              l2710 0FBC  
                            l2702 0F73                              l2286 07DD                              l2278 07C3  
                            l2366 0BD3                              l3094 06D8                              l3086 06D0  
                            l3078 06BB                              l1760 0C44                              l2624 0DED  
                            l2616 0DCB                              l2608 0DA4                              l2640 0D3E  
                            l2632 0BEE                              l2800 03A8                              l2720 0FE0  
                            l2712 0FC4                              l2704 0F8F                              l3176 0EDD  
                            l2296 07E5                              l2368 0BD5                              l3088 06D2  
                            l3096 06DD                              l1770 0C5E                              l1762 0C49  
                            l1754 0C36                              l2618 0DCE                              l1850 0E0A  
                            l1842 0DFC                              l2650 0D50                              l2642 0D41  
                            l2634 0BF5                              l2626 0BD7                              l3178 0464  
                            l2810 03D8                              l2802 03A9                              l2730 026D  
                            l2722 0FE3                              l2714 0FCA                              l2706 0F9E  
                            l3098 06E4                              l1772 0C61                              l1764 0C4C  
                            l1756 0C40                              l1940 0B91                              l1932 0B84  
                            l2580 0C1C                              l1860 0E1F                              l1852 0E0E  
                            l1844 0DFF                              l2660 0D69                              l2652 0D55  
                            l2644 0D45                              l2636 0BFB                              l2628 0BDB  
                            l2820 0410                              l2812 03EC                              l2804 03AD  
                            l2740 0286                              l2732 027A                              l2724 0FF1  
                            l2716 0FCC                              l2708 0FAD                              l1766 0C58  
                            l1758 0C43                              l1942 0B92                              l1934 0B8C  
                            l1950 0B80                              l2582 0C24                              l1870 0E42  
                            l1862 0E22                              l1854 0E13                              l1846 0E03  
                            l2662 0D6D                              l2654 0D5B                              l2670 0D8A  
                            l2646 0D4A                              l1774 0B5C                              l2590 0CB6  
                            l2910 0137                              l2902 0113                              l2830 0443  
                            l2822 041E                              l2814 0400                              l2806 03C3  
                            l2742 0288                              l2734 0280                              l2750 02B5  
                            l2726 0FF4                              l2718 0FD1                              l1768 0C59  
                            l2680 0B6F                              l1936 0B8D                              l1944 0B77  
                            l2576 0C02                              l1880 0E5B                              l1872 0E48  
                            l1864 0E29                              l1856 0E17                              l1848 0E08  
                            l2672 0D8F                              l2664 0D77                              l2656 0D5E  
                            l2648 0D4C                              l1784 07EA                              l2592 0CC5  
                            l2584 0CA8                              l2920 01AF                              l2912 014A  
                            l2904 0122                              l2832 0451                              l2824 042B  
                            l2816 0401                              l2808 03D7                              l2760 02DB  
                            l2752 02BC                              l2744 028A                              l2736 0282  
                            l2728 0FF9                              l2682 0B70                              l1938 0B90  
                            l1946 0B7B                              l2578 0C0C                              l1882 0E60  
                            l1874 0E49                              l1866 0E2D                              l1858 0E19  
                            l2674 0D94                              l2666 0D7D                              l2658 0D65  
                            l2594 0CDA                              l2586 0CAE                              l2930 01E4  
                            l2914 014E                              l2922 01CB                              l2906 0128  
                            l2850 003A                              l2842 002B                              l2818 040E  
                            l2826 043A                              l2770 0335                              l2762 02F5  
                            l2754 02C2                              l2746 0297                              l2738 0284  
                            l2690 0F15                              l2684 0B71                              l1948 0B7F  
                            l1876 0E50                              l1868 0E31                              l2668 0D84  
                            l2596 0CDF                              l2588 0CB1                              l2932 01E6  
                            l2940 0253                              l2924 01D3                              l2916 016A  
                            l2908 0129                              l2860 0066                              l2852 003C  
                            l2844 0032                              l2836 045F                              l2780 0361  
                            l2772 033A                              l2764 0302                              l2756 02C8  
                            l2748 02A6                              l2692 0F2B                              l2678 0B6C  
                            l2950 0BA3                              l2686 0C6B                              l1878 0E56  
                            l2598 0CE2                              l2942 025B                              l2934 01F4  
                            l2918 0184                              l2870 0097                              l2862 0075  
                            l2854 003E                              l2846 0036                              l2790 0395  
                            l2782 036E                              l2774 0347                              l2766 030F  
                            l2758 02CE                              l2694 0F3F                              l2960 0BB0  
                            l2952 0BA6                              l2944 0268                              l2936 020C  
                            l2880 00CF                              l2928 01D5                              l2872 009D  
                            l2856 004B                              l2848 0038                              l2864 0084  
                            l2784 0377                              l2776 0354                              l2768 0328  
                            l2696 0F40                              l2688 0F01                              l2954 0BA9  
                            l2938 0237                              l2890 00FB                              l2882 00D5  
                            l2874 00AA                              l2866 008B                              l2858 0057  
                            l2786 0384                              l2794 039A                              l2778 035B  
                            l2698 0F4D                              l2970 047E                              l2962 046D  
                            l2956 0BAC                              l2948 0B94                              l2892 0109  
                            l2884 00DA                              l2868 0091                              l2876 00C4  
                            l2796 03A0                              l2788 0391                              l2972 0486  
                            l2958 0BAF                              l2894 010C                              l2886 00E9  
                            l2878 00CA                              l2798 03A5                              l2990 0E68  
                            l2982 04B5                              l2974 0493                              l2896 0111  
                            l2888 00F8                              l2992 0E69                              l2984 04C2  
                            l2976 04B1                              l2968 0471                              l2994 0E6F  
                            l2986 04CA                              l2996 0E75                              l2988 04D7  
                            l2998 0E7C                              ?_isr 0070                              STR_1 05C2  
                            STR_2 0587                              STR_3 0533                              STR_4 061F  
                            STR_5 0617                              STR_6 05DE                              STR_7 0627  
                            STR_8 0544                              STR_9 05F7                              u1110 0C3D  
                            u1111 0C39                              u1210 0E03                              u1211 0E02  
                            u1124 0C40                              u1300 0E5B                              u1220 0E0E  
                            u1301 0E5A                              u1221 0E0D                              u1230 0E1F  
                            u1135 0C50                              u1231 0E1E                              u2210 0C34  
                            u1250 0E31                              u2211 0C33                              u1251 0E30  
                            u2300 0D5B                              u2220 0CAE                              u1245 0E23  
                            u2301 0D5A                              u2221 0CAD                              u1270 0E42  
                            u2230 0CDA                              u3007 0DD9                              u1271 0E41  
                            u2231 0CD9                              u2320 0D6D                              u2240 0BDF  
                            u2400 02BC                              u3017 0DE9                              u1265 0E32  
                            u2321 0D6C                              u2241 0BDE                              u2401 02BB  
                            u1290 0E56                              u2330 0D77                              u2410 02C2  
                            u3027 0DF8                              u1291 0E55                              u1275 0E3E  
                            u2331 0D76                              u2315 0D5F                              u2411 02C1  
                            u2500 036E                              u2420 02C8                              u3037 0C46  
                            u1285 0E4A                              u2501 036D                              u2421 02C7  
                            u2350 0D8A                              u2270 0BFB                              u2510 0384  
                            u2430 02DB                              u3047 0C5B                              u2351 0D89  
                            u2335 0D73                              u2271 0BFA                              u2255 0BE8  
                            u2511 0383                              u2431 02DA                              u2360 0D8F  
                            u2280 0D45                              u2600 0091                              u2520 0391  
                            u2440 0302                              u1800 0765                              u3057 0C65  
                            u2361 0D8E                              u2345 0D7E                              u2281 0D44  
                            u2265 0BEF                              u2601 0090                              u2521 0390  
                            u2505 036A                              u2441 0301                              u1801 0764  
                            u2290 0D50                              u2610 0097                              u2530 03A0  
                            u2450 030F                              u2370 0FC4                              u1810 077D  
                            u2291 0D4F                              u2611 0096                              u2531 039F  
                            u2515 0380                              u2451 030E                              u2435 02D7  
                            u2371 0FC3                              u1811 077C                              u2700 01E4  
                            u2620 00AA                              u2540 040E                              u2460 0335  
                            u2380 0FCA                              u1900 07D7                              u1820 0783  
                            u2701 01E3                              u2621 00A9                              u2541 040D  
                            u2525 038D                              u2461 0334                              u2445 02FE  
                            u2381 0FC9                              u1901 07D6                              u1821 0782  
                            u2710 01ED                              u2630 00CA                              u2550 0417  
                            u2470 0347                              u2390 027A                              u1910 07DD  
                            u1830 0789                              u2711 01EB                              u2631 00C9  
                            u2551 0415                              u2471 0346                              u2455 030B  
                            u2391 0279                              u1911 07DC                              u1831 0788  
                            u2720 01EE                              u2640 00D5                              u2560 0418  
                            u2480 0354                              u1920 07E3                              u1840 078F  
                            u2800 065A                              u2641 00D4                              u2625 00A6  
                            u2481 0353                              u2465 0331                              u1921 07E2  
                            u1841 078E                              u2801 0659                              u2730 025B  
                            u2650 00E9                              u2570 0442                              u2490 0361  
                            u1850 07A7                              u1770 0753                              u2810 0661  
                            u2731 025A                              u2651 00E8                              u2571 0441  
                            u2491 0360                              u2475 0343                              u2395 0276  
                            u1851 07A6                              u1771 0752                              u2811 0660  
                            u2660 0147                              u2580 0032                              u2740 0493  
                            u1860 07AD                              u1780 0759                              u2900 0711  
                            u2820 0668                              u2661 0143                              u2581 0031  
                            u2485 0350                              u2741 0492                              u1861 07AC  
                            u1781 0758                              u2901 0710                              u2821 0667  
                            u2590 008B                              u2750 04D7                              u1870 07B3  
                            u1790 075F                              u1950 0BC0                              u2910 071E  
                            u2830 066F                              u2655 00E5                              u2591 008A  
                            u2751 04D6                              u1871 07B2                              u1791 075E  
                            u1951 0BBF                              u2911 071D                              u2831 066E  
                            u2680 014E                              u2760 0E89                              u1880 07B9  
                            u1960 0BC7                              u2920 072A                              u2840 06AC  
                            u2681 014D                              u2761 0E88                              u2745 048F  
                            u1881 07B8                              u1961 0BC6                              u2921 0729  
                            u2841 06AB                              u2690 01D3                              u2674 014A  
                            u2770 0E9D                              u1890 07D1                              u1970 0BCC  
                            u2850 06BB                              u2691 01D2                              u2771 0E9C  
                            u2755 04D3                              u1891 07D0                              u1971 0BCB  
                            u2851 06BA                              _PEIE 005E                              u2780 0EAC  
                            u1980 0BD3                              u2860 06CA                              u2781 0EAB  
                            u1981 0BD2                              u2861 06C9                              u2790 0EFC  
                            u2870 06D0                              u2791 0EFB                              u2871 06CF  
                            u2880 06E4                              u2881 06E3                              u2937 069A  
                            u2890 06F9                              u2947 04DF                              u2891 06F8  
                            u2957 0FEB                              u2967 0103                              u2895 06F5  
                            u2977 0D9F                              u2987 0DB1                              u2997 0DC1  
                            _flag 0032                              _main 0633                              btemp 007E  
                            start 0010              ??_init_matrix_keypad 0073                    clcd_write@byte 0076  
                  clcd_write@mode 0073        __size_of_door_status_check 003E           __end_of_power_on_screen 04E7  
                           ??_isr 0070                             ?_main 0070                   __end_of___awdiv 0E65  
                           STR_10 0566                             STR_11 050E                             STR_12 050E  
                           STR_20 05B4                             STR_21 062F                             STR_13 0555  
                           STR_22 05EB                             STR_14 05A5                             STR_23 0566  
                           STR_15 060E                             STR_24 0596                             STR_16 0522  
                           STR_25 05D0                             STR_17 0511                     __CFG_WDTE$OFF 0000  
                           STR_26 0603                             STR_18 0500                             STR_27 05D0  
                           STR_19 0577                             STR_28 0603                   __end_of___awmod 0D99  
                           STR_29 050D                   ___awdiv@divisor 0073                             i1l328 0D35  
                    ?_init_config 0070                   ___awdiv@counter 0044                             _PORTD 0008  
                           _TRISB 0086                             _TRISD 0088                      ?_init_timer2 0070  
                           _nRBPU 040F                _read_matrix_keypad 0BB2          __size_of_opearation_call 009C  
                           pclath 000A               ?_read_matrix_keypad 0070                             status 0003  
                           wtemp0 007E                      ?_scan_keypad 0070                   __initialization 0013  
                    __end_of_main 073B              ??_read_matrix_keypad 0075                            ??_main 0058  
                ___awdiv@dividend 0075                            i1l2510 0CEA                            i1l2520 0D19  
                          i1l2512 0CF9                            i1l2522 0D26                            i1l2514 0CFB  
                          i1l2516 0D08                            i1l2524 0D32                            i1l2508 0CE6  
                          i1l2518 0D11                            u220_20 0D26                            u220_21 0D25  
                          u220_25 0D22                            u216_20 0CEA                            u216_21 0CE9  
                          u217_20 0CF9                            u217_21 0CF8                            u218_20 0D08  
                          u218_21 0D07                            u218_25 0D04                            u219_20 0D19  
                          u219_21 0D18                            _TMR2IE 0461                            _TMR2IF 0061  
                          _TMR2ON 0092                            _TRISC1 0439                            _TRISC2 043A  
                          _TRISE1 0449                            _TRISE2 044A             __end_of_clear_display 0B64  
         _init_display_controller 0D99                            ___wmul 0BD7                         ??___awdiv 0077  
                ?_power_on_screen 0070                         ??___awmod 004C                  ___awdiv@quotient 0046  
                 ___awmod@divisor 0048                   ___awmod@counter 004D                      __pdataCOMMON 007A  
                __end_of_set_temp 026A                  __end_of_set_time 046D                            saved_w 007E  
         __end_of__initialization 0024                 ??_opearation_call 0055                    __pcstackCOMMON 0070  
            __size_of_init_config 001E              __size_of_init_timer2 000D                        __pbssBANK0 0020  
              __size_of_init_clcd 000B      __end_of_cooking_mode_display 0CA8         ??_init_display_controller 0044  
                      _clcd_print 0C02                        _clcd_putch 07E7                        _clcd_write 0C35  
            __size_of_scan_keypad 00AC                        __pmaintext 0633                           ?___wmul 0073  
                      __pintentry 0004                           _T2CKPS0 0090                           _T2CKPS1 0091  
                      __stringtab 04E7                         ?_set_temp 0070                         ?_set_time 0070  
     __size_of_init_matrix_keypad 0010                           ___awdiv 0DFC                           ___awmod 0D3E  
                 __size_of___wmul 002B                           __ptext1 0BB2                           __ptext2 073B  
                         __ptext3 046D                           __ptext4 0E65                           __ptext5 0F01  
                         __ptext6 026A                           __ptext7 0028                           __ptext8 0CA8  
                         __ptext9 0B5C   __end_of_init_display_controller 0DFC                 __end_of_init_clcd 0B77  
                    __size_of_isr 0058                  ___awmod@dividend 004A                     ?_time_display 0070  
                         main@key 005B                           clrloop0 0B65              end_of_initialization 0024  
                     set_temp@key 0054                       set_time@key 0051                    _operation_mode 003C  
                     ?_clcd_print 0044                       ?_clcd_putch 004F                       ?_clcd_write 0073  
                      _reset_flag 003A                        ??_set_temp 0051                        ??_set_time 004F  
                    __pstringtext 0500       __size_of_read_matrix_keypad 0025              _cooking_mode_display 0C6B  
                  ??_time_display 0051                   _opearation_call 0E65                     clcd_print@str 0044  
                  __end_of___wmul 0C02                     __pidataCOMMON 07FC             ?_cooking_mode_display 0070  
        __size_of_power_on_screen 007A            __size_of_clear_display 0008               start_initialization 0013  
             __size_of_clcd_print 0033                      scan_keypad@i 0073               __size_of_clcd_putch 0015  
             __size_of_clcd_write 0036            read_matrix_keypad@mode 0076            read_matrix_keypad@once 007A  
                     __end_of_isr 0D3E                          ??___wmul 0077           __end_of_opearation_call 0F01  
                   ??_init_config 0077                     ??_init_timer2 0073                       __pbssCOMMON 0078  
                       ___latbits 0002                     __pcstackBANK0 0044                     ??_scan_keypad 0073  
                   _clear_display 0B5C              power_on_screen@i_126 0056              __end_of_time_display 1000  
                        ?___awdiv 0073                          ?___awmod 0048                         _heat_flag 0030  
               __size_of_set_temp 0242                 __size_of_set_time 0203                         __pstrings 04E7  
          ??_cooking_mode_display 0077                opearation_call@key 0057                         _init_clcd 0B6C  
             __end_of_init_config 0BB2                         _min_array 003E                 ??_power_on_screen 0051  
             __end_of_init_timer2 0B84                         _sec_array 0041          ?_init_display_controller 0070  
               interrupt_function 0004                    ___wmul@product 0044                    ?_clear_display 0070  
                       clear_ram0 0B64                      ??_clcd_print 0077                      ??_clcd_putch 0078  
      __end_of_init_matrix_keypad 0B94                      ??_clcd_write 0074                 set_temp@key_count 0024  
             __end_of_scan_keypad 07E7                       __stringbase 04F9                 ___wmul@multiplier 0073  
                ?_opearation_call 0070                __end_of_clcd_print 0C35                __end_of_clcd_putch 07FC  
              __end_of_clcd_write 0C6B                        ?_init_clcd 0070             read_matrix_keypad@key 0077  
               set_time@blink_pos 002A                     set_temp@blink 0028                     set_time@blink 002E  
      __end_of_read_matrix_keypad 0BD7                  __size_of___awdiv 0069                  __size_of___awmod 005B  
              __end_of__stringtab 04F9                 set_time@key_count 0078                       _init_config 0B94  
                     _init_timer2 0B77                          __ptext10 07E7                          __ptext11 0BD7  
                        __ptext20 0D99                          __ptext12 0D3E                          __ptext21 0C35  
                        __ptext13 0DFC                          __ptext22 0CE6                          __ptext14 0C6B  
                        __ptext15 0C02                          __ptext16 0B94                          __ptext17 0B77  
                        __ptext18 0B84                          __ptext19 0B6C                   ??_clear_display 0077  
                   __size_of_main 0108                       _scan_keypad 073B             __size_of_time_display 00FF  
                        _set_temp 0028                          _set_time 026A                 _door_status_check 0CA8  
              ?_door_status_check 0070                          isr@count 0020                      set_temp@temp 0022  
                    set_temp@wait 0026                      set_time@wait 002C               ??_door_status_check 0077  
                     ??_init_clcd 0077                      _time_display 0F01                          intlevel1 0000  
                       stringcode 04F1         __end_of_door_status_check 0CE6                   _power_on_screen 046D  
                        stringtab 04E7                  power_on_screen@i 0054  
